(icoord
Config
p0
(dp1
S'switches'
p2
(lp3
(icoord
Switch
p4
(dp5
S'ofport'
p6
I10
sS'name'
p7
S'wash-tb-of-1'
p8
sS'ip'
p9
S'192.168.120.41'
p10
sS'vfc'
p11
S'br3'
p12
sS'token'
p13
NsS'rtt'
p14
I62
sS'token_file'
p15
NsS'port'
p16
Nsba(icoord
Switch
p17
(dp18
g6
I10
sg7
S'cern-272-tb-of-1'
p19
sg9
S'192.168.120.36'
p20
sg11
g12
sg13
Nsg14
I151
sg15
Nsg16
Nsba(icoord
Switch
p21
(dp22
g6
I23
sg7
S'amst-tb-of-1'
p23
sg9
S'192.168.120.35'
p24
sg11
g12
sg13
Nsg14
I166
sg15
Nsg16
Nsba(icoord
Switch
p25
(dp26
g6
I1
sg7
S'aofa-tb-of-1'
p27
sg9
S'192.168.120.33'
p28
sg11
g12
sg13
Nsg14
I67
sg15
Nsg16
Nsba(icoord
Switch
p29
(dp30
g6
I10
sg7
S'denv-tb-of-1'
p31
sg9
S'192.168.120.37'
p32
sg11
g12
sg13
Nsg14
F0.2
sg15
Nsg16
Nsba(icoord
Switch
p33
(dp34
g6
I8
sg7
S'atla-tb-of-1'
p35
sg9
S'192.168.120.34'
p36
sg11
g12
sg13
Nsg14
F49.4
sg15
Nsg16
NsbasS'dtns'
p37
(lp38
(icoord
DTN
p39
(dp40
S'bias_fun'
p41
Nsg7
S'wash-192'
p42
sg9
S'192.168.120.115'
p43
sS'current_request'
p44
NsS'bias_args'
p45
NsS'current_request_index'
p46
I-1
sS'requests'
p47
(lp48
sg16
S'eth1'
p49
sba(icoord
DTN
p50
(dp51
g41
Nsg7
S'cern-194'
p52
sg9
S'192.168.120.112'
p53
sg44
Nsg45
Nsg46
I-1
sg47
(lp54
sg16
g49
sba(icoord
DTN
p55
(dp56
g41
Nsg7
S'amst-190'
p57
sg9
S'192.168.120.111'
p58
sg44
Nsg45
Nsg46
I-1
sg47
(lp59
sg16
g49
sba(icoord
DTN
p60
(dp61
g41
Nsg7
S'aofa-191'
p62
sg9
S'192.168.120.114'
p63
sg44
Nsg45
Nsg46
I-1
sg47
(lp64
sg16
g49
sba(icoord
DTN
p65
(dp66
g41
Nsg7
S'denv-201'
p67
sg9
S'192.168.120.116'
p68
sg44
Nsg45
Nsg46
I-1
sg47
(lp69
sg16
g49
sba(icoord
DTN
p70
(dp71
g41
Nsg7
S'atla-200'
p72
sg9
S'192.168.120.113'
p73
sg44
Nsg45
Nsg46
I-1
sg47
(lp74
sg16
g49
sbasS'sites'
p75
(lp76
(icoord
Site
p77
(dp78
S'switch'
p79
g4
sg7
S'wash'
p80
sS'dtn'
p81
g39
sba(icoord
Site
p82
(dp83
g79
g21
sg7
S'amst'
p84
sg81
g55
sba(icoord
Site
p85
(dp86
g79
g17
sg7
S'cern'
p87
sg81
g50
sba(icoord
Site
p88
(dp89
g79
g29
sg7
S'denv'
p90
sg81
g65
sba(icoord
Site
p91
(dp92
g79
g25
sg7
S'aofa'
p93
sg81
g60
sba(icoord
Site
p94
(dp95
g79
g33
sg7
S'atla'
p96
sg81
g70
sbasb.