(icoord
Config
p0
(dp1
S'switches'
p2
(lp3
(icoord
Switch
p4
(dp5
S'ofport'
p6
I11
sS'name'
p7
S'wash-tb-of-1'
p8
sS'ip'
p9
S'192.168.120.41'
p10
sS'vfc'
p11
S'br2'
p12
sS'rtt'
p13
F38.8
sS'port'
p14
Nsba(icoord
Switch
p15
(dp16
g6
I10
sg7
S'cern-272-tb-of-1'
p17
sg9
S'192.168.120.36'
p18
sg11
g12
sg13
F89.5
sg14
Nsba(icoord
Switch
p19
(dp20
g6
I23
sg7
S'amst-tb-of-1'
p21
sg9
S'192.168.120.35'
p22
sg11
S'br1'
p23
sg13
F82.5
sg14
NsbasS'sites'
p24
(lp25
(icoord
Site
p26
(dp27
S'switch'
p28
g4
sS'container'
p29
(icoord
Container
p30
(dp31
g9
S'192.168.120.192'
p32
sg7
S'wash-192'
p33
sg14
S'eth1'
p34
sbsg7
S'wash'
p35
sba(icoord
Site
p36
(dp37
g28
g19
sg29
(icoord
Container
p38
(dp39
g9
S'192.168.120.190'
p40
sg7
S'amst-190'
p41
sg14
g34
sbsg7
S'amst'
p42
sba(icoord
Site
p43
(dp44
g28
g15
sg29
(icoord
Container
p45
(dp46
g9
S'192.168.120.194'
p47
sg7
S'cern-194'
p48
sg14
g34
sbsg7
S'cern'
p49
sba(icoord
Site
p50
(dp51
g28
(icoord
Switch
p52
(dp53
g6
I10
sg7
S'denv-tb-of-1'
p54
sg9
S'192.168.120.37'
p55
sg11
g23
sg13
I2
sg14
Nsbsg29
(icoord
Container
p56
(dp57
g9
S'192.168.120.195'
p58
sg7
S'denv-190'
p59
sg14
g34
sbsg7
S'denv'
p60
sba(icoord
Site
p61
(dp62
g28
(icoord
Switch
p63
(dp64
g6
I2
sg7
S'aofa-tb-of-1'
p65
sg9
S'192.168.120.33'
p66
sg11
g12
sg13
F5.3
sg14
Nsbsg29
(icoord
Container
p67
(dp68
g9
S'192.168.120.191'
p69
sg7
S'aofa-191'
p70
sg14
g34
sbsg7
S'aofa'
p71
sbasS'containers'
p72
(lp73
g30
ag45
ag38
ag67
asb.