(icoord
Config
p0
(dp1
S'switches'
p2
(lp3
(icoord
Switch
p4
(dp5
S'ofport'
p6
I11
sS'name'
p7
S'wash-tb-of-1'
p8
sS'ip'
p9
S'192.168.120.41'
p10
sS'vfc'
p11
S'br2'
p12
sS'token'
p13
NsS'rtt'
p14
F38.8
sS'token_file'
p15
NsS'port'
p16
Nsba(icoord
Switch
p17
(dp18
g6
I10
sg7
S'cern-272-tb-of-1'
p19
sg9
S'192.168.120.36'
p20
sg11
g12
sg13
Nsg14
F89.5
sg15
Nsg16
Nsba(icoord
Switch
p21
(dp22
g6
I23
sg7
S'amst-tb-of-1'
p23
sg9
S'192.168.120.35'
p24
sg11
S'br1'
p25
sg13
Nsg14
F82.5
sg15
Nsg16
Nsba(icoord
Switch
p26
(dp27
g6
I2
sg7
S'aofa-tb-of-1'
p28
sg9
S'192.168.120.33'
p29
sg11
g12
sg13
Nsg14
F5.3
sg15
Nsg16
Nsba(icoord
Switch
p30
(dp31
g6
I10
sg7
S'denv-tb-of-1'
p32
sg9
S'192.168.120.37'
p33
sg11
g25
sg13
Nsg14
I2
sg15
Nsg16
Nsba(icoord
Switch
p34
(dp35
g6
I9
sg7
S'atla-tb-of-1'
p36
sg9
S'192.168.120.34'
p37
sg11
g25
sg13
Nsg14
F39.5
sg15
Nsg16
NsbasS'dtns'
p38
(lp39
(icoord
DTN
p40
(dp41
S'bias_fun'
p42
Nsg7
S'wash-192'
p43
sg9
S'192.168.120.192'
p44
sS'bias_args'
p45
NsS'requests'
p46
(lp47
sg16
S'eth1'
p48
sba(icoord
DTN
p49
(dp50
g42
Nsg7
S'cern-194'
p51
sg9
S'192.168.120.194'
p52
sg45
Nsg46
(lp53
sg16
g48
sba(icoord
DTN
p54
(dp55
g42
Nsg7
S'amst-190'
p56
sg9
S'192.168.120.190'
p57
sg45
Nsg46
(lp58
sg16
g48
sba(icoord
DTN
p59
(dp60
g42
Nsg7
S'aofa-191'
p61
sg9
S'192.168.120.191'
p62
sg45
Nsg46
(lp63
sg16
g48
sba(icoord
DTN
p64
(dp65
g42
Nsg7
S'denv-201'
p66
sg9
S'192.168.120.201'
p67
sg45
Nsg46
(lp68
sg16
g48
sba(icoord
DTN
p69
(dp70
g42
Nsg7
S'atla-200'
p71
sg9
S'192.168.120.200'
p72
sg45
Nsg46
(lp73
sg16
g48
sbasS'sites'
p74
(lp75
(icoord
Site
p76
(dp77
S'switch'
p78
g4
sg7
S'wash'
p79
sS'dtn'
p80
g40
sba(icoord
Site
p81
(dp82
g78
g21
sg7
S'amst'
p83
sg80
g54
sba(icoord
Site
p84
(dp85
g78
g17
sg7
S'cern'
p86
sg80
g49
sba(icoord
Site
p87
(dp88
g78
g30
sg7
S'denv'
p89
sg80
g64
sba(icoord
Site
p90
(dp91
g78
g26
sg7
S'aofa'
p92
sg80
g59
sba(icoord
Site
p93
(dp94
g78
g34
sg7
S'atla'
p95
sg80
g69
sbasb.