(icoord
Config
p0
(dp1
S'switches'
p2
(lp3
(icoord
Switch
p4
(dp5
S'ofport'
p6
I11
sS'name'
p7
S'wash-tb-of-1'
p8
sS'ip'
p9
S'192.168.120.41'
p10
sS'vfc'
p11
S'br2'
p12
sS'token'
p13
NsS'rtt'
p14
F38.8
sS'token_file'
p15
NsS'port'
p16
Nsba(icoord
Switch
p17
(dp18
g6
I10
sg7
S'cern-272-tb-of-1'
p19
sg9
S'192.168.120.36'
p20
sg11
g12
sg13
Nsg14
F89.5
sg15
Nsg16
Nsba(icoord
Switch
p21
(dp22
g6
I23
sg7
S'amst-tb-of-1'
p23
sg9
S'192.168.120.35'
p24
sg11
S'br1'
p25
sg13
Nsg14
F82.5
sg15
Nsg16
Nsba(icoord
Switch
p26
(dp27
g6
I2
sg7
S'aofa-tb-of-1'
p28
sg9
S'192.168.120.33'
p29
sg11
g12
sg13
Nsg14
F5.3
sg15
Nsg16
Nsba(icoord
Switch
p30
(dp31
g6
I10
sg7
S'denv-tb-of-1'
p32
sg9
S'192.168.120.37'
p33
sg11
g25
sg13
Nsg14
I2
sg15
Nsg16
Nsba(icoord
Switch
p34
(dp35
g6
I9
sg7
S'atla-tb-of-1'
p36
sg9
S'192.168.120.34'
p37
sg11
g25
sg13
Nsg14
F39.5
sg15
Nsg16
NsbasS'dtns'
p38
(lp39
(icoord
DTN
p40
(dp41
S'bias_fun'
p42
Nsg7
S'wash-192'
p43
sg9
S'192.168.120.192'
p44
sS'current_request'
p45
NsS'bias_args'
p46
NsS'current_request_index'
p47
I-1
sS'lock'
p48
p48
(lp49
sg16
S'eth1'
p50
sba(icoord
DTN
p51
(dp52
g42
Nsg7
S'cern-194'
p53
sg9
S'192.168.120.194'
p54
sg45
Nsg46
Nsg47
I-1
sg48
(lp55
sg16
g50
sba(icoord
DTN
p56
(dp57
g42
Nsg7
S'amst-190'
p58
sg9
S'192.168.120.190'
p59
sg45
Nsg46
Nsg47
I-1
sg48
(lp60
sg16
g50
sba(icoord
DTN
p61
(dp62
g42
Nsg7
S'aofa-191'
p63
sg9
S'192.168.120.191'
p64
sg45
Nsg46
Nsg47
I-1
sg48
(lp65
sg16
g50
sba(icoord
DTN
p66
(dp67
g42
Nsg7
S'denv-201'
p68
sg9
S'192.168.120.201'
p69
sg45
Nsg46
Nsg47
I-1
sg48
(lp70
sg16
g50
sba(icoord
DTN
p71
(dp72
g42
Nsg7
S'atla-200'
p73
sg9
S'192.168.120.200'
p74
sg45
Nsg46
Nsg47
I-1
sg48
(lp75
sg16
g50
sbasS'sites'
p76
(lp77
(icoord
Site
p78
(dp79
S'switch'
p80
g4
sg7
S'wash'
p81
sS'dtn'
p82
g40
sba(icoord
Site
p83
(dp84
g80
g21
sg7
S'amst'
p85
sg82
g56
sba(icoord
Site
p86
(dp87
g80
g17
sg7
S'cern'
p88
sg82
g51
sba(icoord
Site
p89
(dp90
g80
g30
sg7
S'denv'
p91
sg82
g66
sba(icoord
Site
p92
(dp93
g80
g26
sg7
S'aofa'
p94
sg82
g61
sba(icoord
Site
p95
(dp96
g80
g34
sg7
S'atla'
p97
sg82
g71
sbasb.