(lp0
(lp1
(icoord
CoordRequest
p2
(dp3
S'description'
p4
S''
p5
sS'src'
p6
S'wash-192'
p7
sS'src_dtn'
p8
(icoord
DTN
p9
(dp10
S'bias_fun'
p11
NsS'name'
p12
g7
sS'ip'
p13
S'192.168.120.192'
p14
sS'bias_args'
p15
NsS'requests'
p16
(lp17
(icoord
CoordRequest
p18
(dp19
g4
g5
sg6
g7
sg8
g9
sS'start_time'
p20
NsS'deadline_datetime'
p21
cdatetime
datetime
p22
(S'\x07\xe1\n\x1e\t$&\x04\x1c\xe2'
p23
tp24
Rp25
sS'delay_ratio'
p26
cnumpy.core.multiarray
scalar
p27
(cnumpy
dtype
p28
(S'f8'
p29
I0
I1
tp30
Rp31
(I3
S'<'
p32
NNNI-1
I-1
I0
tp33
bS'_\xca\xf2\x91mVR@'
p34
tp35
Rp36
sS'dst'
p37
S'scinet-dtn'
p38
sS'max_rate'
p39
I0
sS'completed'
p40
I00
sS'ts'
p41
I0
sS'min_duration'
p42
g27
(g31
S'\xfa~j\xbct\x93h@'
p43
tp44
Rp45
sS'coordinator'
p46
NsS'percent_completion'
p47
I0
sS'completed_ontime'
p48
I00
sS'dst_dtn'
p49
(icoord
DTN
p50
(dp51
g11
Nsg12
g38
sg13
S'192.168.120.37'
p52
sg15
Nsg16
(lp53
sS'port'
p54
S'eth1'
p55
sbsS'td'
p56
g27
(g31
S'\xe4l\xf9\x1c"Mu@'
p57
tp58
Rp59
sS'accepted'
p60
I00
sS'received_datetime'
p61
g22
(S'\x07\xe1\n\x1e\t\x1e9\x06\xd8\xc6'
p62
tp63
Rp64
sS'size'
p65
g27
(g28
(S'i8'
p66
I0
I1
tp67
Rp68
(I3
S'<'
p69
NNNI-1
I-1
I0
tp70
bS'\x00(\x00\x00\x00\x00\x00\x00'
p71
tp72
Rp73
sba(icoord
CoordRequest
p74
(dp75
g4
g5
sg6
g7
sg8
g9
sg20
Nsg21
g22
(S'\x07\xe1\n\x1e\x0b%\x1b\n\x88\xb4'
p76
tp77
Rp78
sg26
g27
(g31
S'\xbe\xb7\xd4@v\x8b\x92@'
p79
tp80
Rp81
sg37
g38
sg39
I0
sg40
I00
sg41
I0
sg42
g27
(g31
S';\xdfO\x8d\x97n\x82@'
p82
tp83
Rp84
sg46
Nsg47
I0
sg48
I00
sg49
g50
sg56
g27
(g31
S'3\xb2<\xd0=\xa6\xbd@'
p85
tp86
Rp87
sg60
I00
sg61
g22
(S'\x07\xe1\n\x1e\t\x1e9\x06\xd9\x81'
p88
tp89
Rp90
sg65
g27
(g68
S'\x00x\x00\x00\x00\x00\x00\x00'
p91
tp92
Rp93
sba(icoord
CoordRequest
p94
(dp95
g4
g5
sg6
g7
sg8
g9
sg20
Nsg21
g22
(S'\x07\xe1\n\x1e\t\x1f9\rz('
p96
tp97
Rp98
sg26
g27
(g31
S'\x92\r\xffn$\x16\x80@'
p99
tp100
Rp101
sg37
g38
sg39
I0
sg40
I00
sg41
I0
sg42
g27
(g31
S'a2U0*\xa9#@'
p102
tp103
Rp104
sg46
Nsg47
I0
sg48
I00
sg49
g50
sg56
g27
(g31
S'\x1cj\xfa\xa9\x917N@'
p105
tp106
Rp107
sg60
I00
sg61
g22
(S'\x07\xe1\n\x1e\t\x1e9\x06\xdaS'
p108
tp109
Rp110
sg65
g27
(g68
S'\x00\x02\x00\x00\x00\x00\x00\x00'
p111
tp112
Rp113
sba(icoord
CoordRequest
p114
(dp115
g4
g5
sg6
g7
sg8
g9
sg20
Nsg21
g22
(S'\x07\xe1\n\x1e\n\x00\x00\x04\xb5\x13'
p116
tp117
Rp118
sg26
g27
(g31
S'h3\x90\xd4\x9d\xaf~@'
p119
tp120
Rp121
sg37
g38
sg39
I0
sg40
I00
sg41
I0
sg42
g27
(g31
S';\xdfO\x8d\x97nr@'
p122
tp123
Rp124
sg46
Nsg47
I0
sg48
I00
sg49
g50
sg56
g27
(g31
S'$\xf6\n\xdco;\x9b@'
p125
tp126
Rp127
sg60
I00
sg61
g22
(S'\x07\xe1\n\x1e\t\x1e9\x06\xda\xed'
p128
tp129
Rp130
sg65
g27
(g68
S'\x00<\x00\x00\x00\x00\x00\x00'
p131
tp132
Rp133
sba(icoord
CoordRequest
p134
(dp135
g4
g5
sg6
g7
sg8
g9
sg20
Nsg21
g22
(S'\x07\xe1\n\x1e\t%\x01\x05)e'
p136
tp137
Rp138
sg26
g27
(g31
S'\xda\x1c\xc9j\x93c7@'
p139
tp140
Rp141
sg37
g38
sg39
I0
sg40
I00
sg41
I0
sg42
g27
(g31
S';\xdfO\x8d\x97nr@'
p142
tp143
Rp144
sg46
Nsg47
I0
sg48
I00
sg49
g50
sg56
g27
(g31
S'\xfd\x04\xb4\xd38\xbev@'
p145
tp146
Rp147
sg60
I00
sg61
g22
(S'\x07\xe1\n\x1e\t\x1e9\x06\xdb{'
p148
tp149
Rp150
sg65
g27
(g68
S'\x00<\x00\x00\x00\x00\x00\x00'
p151
tp152
Rp153
sba(icoord
CoordRequest
p154
(dp155
g4
g5
sg6
g7
sg8
g9
sg20
Nsg21
g22
(S'\x07\xe1\n\x1e\n\x1c3\x0e?o'
p156
tp157
Rp158
sg26
g27
(g31
S'\xf5\x88^/\xdb\x0c\x9a@'
p159
tp160
Rp161
sg37
g38
sg39
I0
sg40
I00
sg41
I0
sg42
g27
(g31
S'\xfa~j\xbct\x93h@'
p162
tp163
Rp164
sg46
Nsg47
I0
sg48
I00
sg49
g50
sg56
g27
(g31
S's?q\xe8\xf7$\xab@'
p165
tp166
Rp167
sg60
I00
sg61
g22
(S'\x07\xe1\n\x1e\t\x1e9\x06\xdc\x0c'
p168
tp169
Rp170
sg65
g27
(g68
S'\x00(\x00\x00\x00\x00\x00\x00'
p171
tp172
Rp173
sba(icoord
CoordRequest
p174
(dp175
g4
g5
sg6
g7
sg8
g9
sg20
Nsg21
g22
(S'\x07\xe1\n\x1e\t:\x01\x02\x90\xa5'
p176
tp177
Rp178
sg26
g27
(g31
S'\x1d%\xa9Y\xed\xae\x86@'
p179
tp180
Rp181
sg37
g38
sg39
I0
sg40
I00
sg41
I0
sg42
g27
(g31
S'\xfa~j\xbct\x93h@'
p182
tp183
Rp184
sg46
Nsg47
I0
sg48
I00
sg49
g50
sg56
g27
(g31
S'\xb7\xeb\x80\xa8\xdf^\x99@'
p185
tp186
Rp187
sg60
I00
sg61
g22
(S'\x07\xe1\n\x1e\t\x1e9\x06\xdc\x95'
p188
tp189
Rp190
sg65
g27
(g68
S'\x00(\x00\x00\x00\x00\x00\x00'
p191
tp192
Rp193
sba(icoord
CoordRequest
p194
(dp195
g4
g5
sg6
g7
sg8
g9
sg20
Nsg21
g22
(S'\x07\xe1\n\x1e\t&;\t\xc6\x1f'
p196
tp197
Rp198
sg26
g27
(g31
S'\xda}\xd2\x7fj\xc0O@'
p199
tp200
Rp201
sg37
g38
sg39
I0
sg40
I00
sg41
I0
sg42
g27
(g31
S';\xdfO\x8d\x97nr@'
p202
tp203
Rp204
sg46
Nsg47
I0
sg48
I00
sg49
g50
sg56
g27
(g31
S':\xdc\x9e \r#~@'
p205
tp206
Rp207
sg60
I00
sg61
g22
(S'\x07\xe1\n\x1e\t\x1e9\x06\xdd.'
p208
tp209
Rp210
sg65
g27
(g68
S'\x00<\x00\x00\x00\x00\x00\x00'
p211
tp212
Rp213
sba(icoord
CoordRequest
p214
(dp215
g4
g5
sg6
g7
sg8
g9
sg20
Nsg21
g22
(S'\x07\xe1\n\x1e\r8\x17\x03\x1a%'
p216
tp217
Rp218
sg26
g27
(g31
S'x\xa3\xe8\xdc+P\xa4@'
p219
tp220
Rp221
sg37
g38
sg39
I0
sg40
I00
sg41
I0
sg42
g27
(g31
S';\xdfO\x8d\x97n\x82@'
p222
tp223
Rp224
sg46
Nsg47
I0
sg48
I00
sg49
g50
sg56
g27
(g31
S'\xcd\xe6)l\xe0\x1a\xcf@'
p225
tp226
Rp227
sg60
I00
sg61
g22
(S'\x07\xe1\n\x1e\t\x1e9\x06\xdd\xd0'
p228
tp229
Rp230
sg65
g27
(g68
S'\x00x\x00\x00\x00\x00\x00\x00'
p231
tp232
Rp233
sba(icoord
CoordRequest
p234
(dp235
g4
g5
sg6
g7
sg8
g9
sg20
Nsg21
g22
(S'\x07\xe1\n\x1e\t\x1f\t\x0b3\xe4'
p236
tp237
Rp238
sg26
g27
(g31
S'\x03\xb7\x00vh\xfdx@'
p239
tp240
Rp241
sg37
g38
sg39
I0
sg40
I00
sg41
I0
sg42
g27
(g31
S'a2U0*\xa9\x03@'
p242
tp243
Rp244
sg46
Nsg47
I0
sg48
I00
sg49
g50
sg56
g27
(g31
S'x.\\\xe8j\x91(@'
p245
tp246
Rp247
sg60
I00
sg61
g22
(S'\x07\xe1\n\x1e\t\x1e9\x06\xdeq'
p248
tp249
Rp250
sg65
g27
(g68
S'\x80\x00\x00\x00\x00\x00\x00\x00'
p251
tp252
Rp253
sba(icoord
CoordRequest
p254
(dp255
g4
g5
sg6
g7
sg8
g9
sg20
Nsg21
g22
(S'\x07\xe1\n\x1e\t%"\x07\n\xab'
p256
tp257
Rp258
sg26
g27
(g31
S'_\xca\xf2\x91mVR@'
p259
tp260
Rp261
sg37
g38
sg39
I0
sg40
I00
sg41
I0
sg42
g27
(g31
S'\xfa~j\xbct\x93h@'
p262
tp263
Rp264
sg46
Nsg47
I0
sg48
I00
sg49
g50
sg56
g27
(g31
S'\xe4l\xf9\x1c"Mu@'
p265
tp266
Rp267
sg60
I00
sg61
g22
(S'\x07\xe1\n\x1e\t\x1f5\t\xc6\x8f'
p268
tp269
Rp270
sg65
g27
(g68
S'\x00(\x00\x00\x00\x00\x00\x00'
p271
tp272
Rp273
sba(icoord
CoordRequest
p274
(dp275
g4
g5
sg6
g7
sg8
g9
sg20
Nsg21
g22
(S'\x07\xe1\n\x1e\x0b&\x17\rv\xb8'
p276
tp277
Rp278
sg26
g27
(g31
S'\xbe\xb7\xd4@v\x8b\x92@'
p279
tp280
Rp281
sg37
g38
sg39
I0
sg40
I00
sg41
I0
sg42
g27
(g31
S';\xdfO\x8d\x97n\x82@'
p282
tp283
Rp284
sg46
Nsg47
I0
sg48
I00
sg49
g50
sg56
g27
(g31
S'3\xb2<\xd0=\xa6\xbd@'
p285
tp286
Rp287
sg60
I00
sg61
g22
(S'\x07\xe1\n\x1e\t\x1f5\t\xc7\x85'
p288
tp289
Rp290
sg65
g27
(g68
S'\x00x\x00\x00\x00\x00\x00\x00'
p291
tp292
Rp293
sba(icoord
CoordRequest
p294
(dp295
g4
g5
sg6
g7
sg8
g9
sg20
Nsg21
g22
(S'\x07\xe1\n\x1e\t 6\x01%\xa9'
p296
tp297
Rp298
sg26
g27
(g31
S'\x92\r\xffn$\x16\x80@'
p299
tp300
Rp301
sg37
g38
sg39
I0
sg40
I00
sg41
I0
sg42
g27
(g31
S'a2U0*\xa9#@'
p302
tp303
Rp304
sg46
Nsg47
I0
sg48
I00
sg49
g50
sg56
g27
(g31
S'\x1cj\xfa\xa9\x917N@'
p305
tp306
Rp307
sg60
I00
sg61
g22
(S'\x07\xe1\n\x1e\t\x1f5\t\xc8\x14'
p308
tp309
Rp310
sg65
g27
(g68
S'\x00\x02\x00\x00\x00\x00\x00\x00'
p311
tp312
Rp313
sba(icoord
CoordRequest
p314
(dp315
g4
g5
sg6
g7
sg8
g9
sg20
Nsg21
g22
(S'\x07\xe1\n\x1e\n\x008\x07\xa2\xcb'
p316
tp317
Rp318
sg26
g27
(g31
S'h3\x90\xd4\x9d\xaf~@'
p319
tp320
Rp321
sg37
g38
sg39
I0
sg40
I00
sg41
I0
sg42
g27
(g31
S';\xdfO\x8d\x97nr@'
p322
tp323
Rp324
sg46
Nsg47
I0
sg48
I00
sg49
g50
sg56
g27
(g31
S'$\xf6\n\xdco;\x9b@'
p325
tp326
Rp327
sg60
I00
sg61
g22
(S'\x07\xe1\n\x1e\t\x1f5\t\xc8\xa5'
p328
tp329
Rp330
sg65
g27
(g68
S'\x00<\x00\x00\x00\x00\x00\x00'
p331
tp332
Rp333
sba(icoord
CoordRequest
p334
(dp335
g4
g5
sg6
g7
sg8
g9
sg20
Nsg21
g22
(S'\x07\xe1\n\x1e\t%9\x08\x17\x1d'
p336
tp337
Rp338
sg26
g27
(g31
S'\xda\x1c\xc9j\x93c7@'
p339
tp340
Rp341
sg37
g38
sg39
I0
sg40
I00
sg41
I0
sg42
g27
(g31
S';\xdfO\x8d\x97nr@'
p342
tp343
Rp344
sg46
Nsg47
I0
sg48
I00
sg49
g50
sg56
g27
(g31
S'\xfd\x04\xb4\xd38\xbev@'
p345
tp346
Rp347
sg60
I00
sg61
g22
(S'\x07\xe1\n\x1e\t\x1f5\t\xc93'
p348
tp349
Rp350
sg65
g27
(g68
S'\x00<\x00\x00\x00\x00\x00\x00'
p351
tp352
Rp353
sba(icoord
CoordRequest
p354
(dp355
g4
g5
sg6
g7
sg8
g9
sg20
Nsg21
g22
(S'\x07\xe1\n\x1e\n\x1d0\x01\xea\xf6'
p356
tp357
Rp358
sg26
g27
(g31
S'\xf5\x88^/\xdb\x0c\x9a@'
p359
tp360
Rp361
sg37
g38
sg39
I0
sg40
I00
sg41
I0
sg42
g27
(g31
S'\xfa~j\xbct\x93h@'
p362
tp363
Rp364
sg46
Nsg47
I0
sg48
I00
sg49
g50
sg56
g27
(g31
S's?q\xe8\xf7$\xab@'
p365
tp366
Rp367
sg60
I00
sg61
g22
(S'\x07\xe1\n\x1e\t\x1f5\t\xc9\xd3'
p368
tp369
Rp370
sg65
g27
(g68
S'\x00(\x00\x00\x00\x00\x00\x00'
p371
tp372
Rp373
sba(icoord
CoordRequest
p374
(dp375
g4
g5
sg6
g7
sg8
g9
sg20
Nsg21
g22
(S'\x07\xe1\n\x1e\t:9\x05~\x83'
p376
tp377
Rp378
sg26
g27
(g31
S'\x1d%\xa9Y\xed\xae\x86@'
p379
tp380
Rp381
sg37
g38
sg39
I0
sg40
I00
sg41
I0
sg42
g27
(g31
S'\xfa~j\xbct\x93h@'
p382
tp383
Rp384
sg46
Nsg47
I0
sg48
I00
sg49
g50
sg56
g27
(g31
S'\xb7\xeb\x80\xa8\xdf^\x99@'
p385
tp386
Rp387
sg60
I00
sg61
g22
(S'\x07\xe1\n\x1e\t\x1f5\t\xcas'
p388
tp389
Rp390
sg65
g27
(g68
S'\x00(\x00\x00\x00\x00\x00\x00'
p391
tp392
Rp393
sba(icoord
CoordRequest
p394
(dp395
g4
g5
sg6
g7
sg8
g9
sg20
Nsg21
g22
(S"\x07\xe1\n\x1e\t'7\x0c\xb4K"
p396
tp397
Rp398
sg26
g27
(g31
S'\xda}\xd2\x7fj\xc0O@'
p399
tp400
Rp401
sg37
g38
sg39
I0
sg40
I00
sg41
I0
sg42
g27
(g31
S';\xdfO\x8d\x97nr@'
p402
tp403
Rp404
sg46
Nsg47
I0
sg48
I00
sg49
g50
sg56
g27
(g31
S':\xdc\x9e \r#~@'
p405
tp406
Rp407
sg60
I00
sg61
g22
(S'\x07\xe1\n\x1e\t\x1f5\t\xcbZ'
p408
tp409
Rp410
sg65
g27
(g68
S'\x00<\x00\x00\x00\x00\x00\x00'
p411
tp412
Rp413
sba(icoord
CoordRequest
p414
(dp415
g4
g5
sg6
g7
sg8
g9
sg20
Nsg21
g22
(S'\x07\xe1\n\x1e\r9\x13\x06\x08\xcc'
p416
tp417
Rp418
sg26
g27
(g31
S'x\xa3\xe8\xdc+P\xa4@'
p419
tp420
Rp421
sg37
g38
sg39
I0
sg40
I00
sg41
I0
sg42
g27
(g31
S';\xdfO\x8d\x97n\x82@'
p422
tp423
Rp424
sg46
Nsg47
I0
sg48
I00
sg49
g50
sg56
g27
(g31
S'\xcd\xe6)l\xe0\x1a\xcf@'
p425
tp426
Rp427
sg60
I00
sg61
g22
(S'\x07\xe1\n\x1e\t\x1f5\t\xccw'
p428
tp429
Rp430
sg65
g27
(g68
S'\x00x\x00\x00\x00\x00\x00\x00'
p431
tp432
Rp433
sba(icoord
CoordRequest
p434
(dp435
g4
g5
sg6
g7
sg8
g9
sg20
Nsg21
g22
(S'\x07\xe1\n\x1e\t \x05\x0e"\x81'
p436
tp437
Rp438
sg26
g27
(g31
S'\x03\xb7\x00vh\xfdx@'
p439
tp440
Rp441
sg37
g38
sg39
I0
sg40
I00
sg41
I0
sg42
g27
(g31
S'a2U0*\xa9\x03@'
p442
tp443
Rp444
sg46
Nsg47
I0
sg48
I00
sg49
g50
sg56
g27
(g31
S'x.\\\xe8j\x91(@'
p445
tp446
Rp447
sg60
I00
sg61
g22
(S'\x07\xe1\n\x1e\t\x1f5\t\xcd\x0e'
p448
tp449
Rp450
sg65
g27
(g68
S'\x80\x00\x00\x00\x00\x00\x00\x00'
p451
tp452
Rp453
sbag2
a(icoord
CoordRequest
p454
(dp455
g4
g5
sg6
g7
sg8
g9
sg20
Nsg21
g22
(S'\x07\xe1\n\x1e\x0b&*\x00\xc92'
p456
tp457
Rp458
sg26
g27
(g31
S'\xbe\xb7\xd4@v\x8b\x92@'
p459
tp460
Rp461
sg37
g38
sg39
I0
sg40
I00
sg41
I0
sg42
g27
(g31
S';\xdfO\x8d\x97n\x82@'
p462
tp463
Rp464
sg46
Nsg47
I0
sg48
I00
sg49
g50
sg56
g27
(g31
S'3\xb2<\xd0=\xa6\xbd@'
p465
tp466
Rp467
sg60
I00
sg61
g22
(S'\x07\xe1\n\x1e\t \x0b\x0c\\?'
p468
tp469
Rp470
sg65
g27
(g68
S'\x00x\x00\x00\x00\x00\x00\x00'
p471
tp472
Rp473
sba(icoord
CoordRequest
p474
(dp475
g4
g5
sg6
g7
sg8
g9
sg20
Nsg21
g22
(S'\x07\xe1\n\x1e\t!\x0c\x03\xba\\'
p476
tp477
Rp478
sg26
g27
(g31
S'\x92\r\xffn$\x16\x80@'
p479
tp480
Rp481
sg37
g38
sg39
I0
sg40
I00
sg41
I0
sg42
g27
(g31
S'a2U0*\xa9#@'
p482
tp483
Rp484
sg46
Nsg47
I0
sg48
I00
sg49
g50
sg56
g27
(g31
S'\x1cj\xfa\xa9\x917N@'
p485
tp486
Rp487
sg60
I00
sg61
g22
(S'\x07\xe1\n\x1e\t \x0b\x0c\\\xc7'
p488
tp489
Rp490
sg65
g27
(g68
S'\x00\x02\x00\x00\x00\x00\x00\x00'
p491
tp492
Rp493
sba(icoord
CoordRequest
p494
(dp495
g4
g5
sg6
g7
sg8
g9
sg20
Nsg21
g22
(S'\x07\xe1\n\x1e\n\x01\x0e\n7w'
p496
tp497
Rp498
sg26
g27
(g31
S'h3\x90\xd4\x9d\xaf~@'
p499
tp500
Rp501
sg37
g38
sg39
I0
sg40
I00
sg41
I0
sg42
g27
(g31
S';\xdfO\x8d\x97nr@'
p502
tp503
Rp504
sg46
Nsg47
I0
sg48
I00
sg49
g50
sg56
g27
(g31
S'$\xf6\n\xdco;\x9b@'
p505
tp506
Rp507
sg60
I00
sg61
g22
(S'\x07\xe1\n\x1e\t \x0b\x0c]Q'
p508
tp509
Rp510
sg65
g27
(g68
S'\x00<\x00\x00\x00\x00\x00\x00'
p511
tp512
Rp513
sba(icoord
CoordRequest
p514
(dp515
g4
g5
sg6
g7
sg8
g9
sg20
Nsg21
g22
(S'\x07\xe1\n\x1e\t&\x0f\n\xab\xd6'
p516
tp517
Rp518
sg26
g27
(g31
S'\xda\x1c\xc9j\x93c7@'
p519
tp520
Rp521
sg37
g38
sg39
I0
sg40
I00
sg41
I0
sg42
g27
(g31
S';\xdfO\x8d\x97nr@'
p522
tp523
Rp524
sg46
Nsg47
I0
sg48
I00
sg49
g50
sg56
g27
(g31
S'\xfd\x04\xb4\xd38\xbev@'
p525
tp526
Rp527
sg60
I00
sg61
g22
(S'\x07\xe1\n\x1e\t \x0b\x0c]\xec'
p528
tp529
Rp530
sg65
g27
(g68
S'\x00<\x00\x00\x00\x00\x00\x00'
p531
tp532
Rp533
sba(icoord
CoordRequest
p534
(dp535
g4
g5
sg6
g7
sg8
g9
sg20
Nsg21
g22
(S'\x07\xe1\n\x1e\n\x1e\x06\x04\x80\x12'
p536
tp537
Rp538
sg26
g27
(g31
S'\xf5\x88^/\xdb\x0c\x9a@'
p539
tp540
Rp541
sg37
g38
sg39
I0
sg40
I00
sg41
I0
sg42
g27
(g31
S'\xfa~j\xbct\x93h@'
p542
tp543
Rp544
sg46
Nsg47
I0
sg48
I00
sg49
g50
sg56
g27
(g31
S's?q\xe8\xf7$\xab@'
p545
tp546
Rp547
sg60
I00
sg61
g22
(S'\x07\xe1\n\x1e\t \x0b\x0c^\xef'
p548
tp549
Rp550
sg65
g27
(g68
S'\x00(\x00\x00\x00\x00\x00\x00'
p551
tp552
Rp553
sba(icoord
CoordRequest
p554
(dp555
g4
g5
sg6
g7
sg8
g9
sg20
Nsg21
g22
(S'\x07\xe1\n\x1e\t;\x0f\x08\x13\x98'
p556
tp557
Rp558
sg26
g27
(g31
S'\x1d%\xa9Y\xed\xae\x86@'
p559
tp560
Rp561
sg37
g38
sg39
I0
sg40
I00
sg41
I0
sg42
g27
(g31
S'\xfa~j\xbct\x93h@'
p562
tp563
Rp564
sg46
Nsg47
I0
sg48
I00
sg49
g50
sg56
g27
(g31
S'\xb7\xeb\x80\xa8\xdf^\x99@'
p565
tp566
Rp567
sg60
I00
sg61
g22
(S'\x07\xe1\n\x1e\t \x0b\x0c_\x88'
p568
tp569
Rp570
sg65
g27
(g68
S'\x00(\x00\x00\x00\x00\x00\x00'
p571
tp572
Rp573
sba(icoord
CoordRequest
p574
(dp575
g4
g5
sg6
g7
sg8
g9
sg20
Nsg21
g22
(S'\x07\xe1\n\x1e\t(\x0e\x00\x06\xc6'
p576
tp577
Rp578
sg26
g27
(g31
S'\xda}\xd2\x7fj\xc0O@'
p579
tp580
Rp581
sg37
g38
sg39
I0
sg40
I00
sg41
I0
sg42
g27
(g31
S';\xdfO\x8d\x97nr@'
p582
tp583
Rp584
sg46
Nsg47
I0
sg48
I00
sg49
g50
sg56
g27
(g31
S':\xdc\x9e \r#~@'
p585
tp586
Rp587
sg60
I00
sg61
g22
(S'\x07\xe1\n\x1e\t \x0b\x0c`\x15'
p588
tp589
Rp590
sg65
g27
(g68
S'\x00<\x00\x00\x00\x00\x00\x00'
p591
tp592
Rp593
sba(icoord
CoordRequest
p594
(dp595
g4
g5
sg6
g7
sg8
g9
sg20
Nsg21
g22
(S'\x07\xe1\n\x1e\r9%\x08\x9c\xfb'
p596
tp597
Rp598
sg26
g27
(g31
S'x\xa3\xe8\xdc+P\xa4@'
p599
tp600
Rp601
sg37
g38
sg39
I0
sg40
I00
sg41
I0
sg42
g27
(g31
S';\xdfO\x8d\x97n\x82@'
p602
tp603
Rp604
sg46
Nsg47
I0
sg48
I00
sg49
g50
sg56
g27
(g31
S'\xcd\xe6)l\xe0\x1a\xcf@'
p605
tp606
Rp607
sg60
I00
sg61
g22
(S'\x07\xe1\n\x1e\t \x0b\x0c`\xa6'
p608
tp609
Rp610
sg65
g27
(g68
S'\x00x\x00\x00\x00\x00\x00\x00'
p611
tp612
Rp613
sba(icoord
CoordRequest
p614
(dp615
g4
g5
sg6
g7
sg8
g9
sg20
Nsg21
g22
(S'\x07\xe1\n\x1e\t \x18\x01tu'
p616
tp617
Rp618
sg26
g27
(g31
S'\x03\xb7\x00vh\xfdx@'
p619
tp620
Rp621
sg37
g38
sg39
I0
sg40
I00
sg41
I0
sg42
g27
(g31
S'a2U0*\xa9\x03@'
p622
tp623
Rp624
sg46
Nsg47
I0
sg48
I00
sg49
g50
sg56
g27
(g31
S'x.\\\xe8j\x91(@'
p625
tp626
Rp627
sg60
I00
sg61
g22
(S'\x07\xe1\n\x1e\t \x0b\x0caB'
p628
tp629
Rp630
sg65
g27
(g68
S'\x80\x00\x00\x00\x00\x00\x00\x00'
p631
tp632
Rp633
sbasg54
g55
sbsg20
Nsg21
g22
(S'\x07\xe1\n\x1e\t%4\t\x9fy'
p634
tp635
Rp636
sg26
g27
(g31
S'_\xca\xf2\x91mVR@'
p637
tp638
Rp639
sg37
g38
sg39
I0
sg40
I00
sg41
I0
sg42
g27
(g31
S'\xfa~j\xbct\x93h@'
p640
tp641
Rp642
sg46
Nsg47
I0
sg48
I00
sg49
g50
sg56
g27
(g31
S'\xe4l\xf9\x1c"Mu@'
p643
tp644
Rp645
sg60
I00
sg61
g22
(S'\x07\xe1\n\x1e\t \x0b\x0c[]'
p646
tp647
Rp648
sg65
g27
(g68
S'\x00(\x00\x00\x00\x00\x00\x00'
p649
tp650
Rp651
sba(icoord
CoordRequest
p652
(dp653
g4
g5
sg6
S'cern-194'
p654
sg8
(icoord
DTN
p655
(dp656
g11
Nsg12
g654
sg13
S'192.168.120.194'
p657
sg15
Nsg16
(lp658
(icoord
CoordRequest
p659
(dp660
g4
g5
sg6
g654
sg8
g655
sg20
Nsg21
g22
(S'\x07\xe1\n\x1e\t&\r\n\x7f\x18'
p661
tp662
Rp663
sg26
g27
(g31
S'\xca\xff\xd7\x15?|u@'
p664
tp665
Rp666
sg37
g38
sg39
I0
sg40
I00
sg41
I0
sg42
g27
(g31
S'\xfa~j\xbct\x93X@'
p667
tp668
Rp669
sg46
Nsg47
I0
sg48
I00
sg49
g50
sg56
g27
(g31
S'\xc8e\xf7\x84\xd3C{@'
p670
tp671
Rp672
sg60
I00
sg61
g22
(S'\x07\xe1\n\x1e\t\x1e9\x06\xd8\xf4'
p673
tp674
Rp675
sg65
g27
(g68
S'\x00\x14\x00\x00\x00\x00\x00\x00'
p676
tp677
Rp678
sba(icoord
CoordRequest
p679
(dp680
g4
g5
sg6
g654
sg8
g655
sg20
Nsg21
g22
(S'\x07\xe1\n\x1e\t \x07\x04><'
p681
tp682
Rp683
sg26
g27
(g31
S'.\xd9\xd9\x00\xb6\x12\x83@'
p684
tp685
Rp686
sg37
g38
sg39
I0
sg40
I00
sg41
I0
sg42
g27
(g31
S'a2U0*\xa9#@'
p687
tp688
Rp689
sg46
Nsg47
I0
sg48
I00
sg49
g50
sg56
g27
(g31
S'\x19-8\xd4\x10uQ@'
p690
tp691
Rp692
sg60
I00
sg61
g22
(S'\x07\xe1\n\x1e\t\x1e9\x06\xd9\x9c'
p693
tp694
Rp695
sg65
g27
(g68
S'\x00\x02\x00\x00\x00\x00\x00\x00'
p696
tp697
Rp698
sba(icoord
CoordRequest
p699
(dp700
g4
g5
sg6
g654
sg8
g655
sg20
Nsg21
g22
(S'\x07\xe1\n\x1e\t4\x0f\t\xa9\xa2'
p701
tp702
Rp703
sg26
g27
(g31
S'\x86\xbau\xb5\x97\xd6t@'
p704
tp705
Rp706
sg37
g38
sg39
I0
sg40
I00
sg41
I0
sg42
g27
(g31
S';\xdfO\x8d\x97nr@'
p707
tp708
Rp709
sg46
Nsg47
I0
sg48
I00
sg49
g50
sg56
g27
(g31
S'\xde\xd5l\x87\xbc\xf8\x93@'
p710
tp711
Rp712
sg60
I00
sg61
g22
(S'\x07\xe1\n\x1e\t\x1e9\x06\xdat'
p713
tp714
Rp715
sg65
g27
(g68
S'\x00<\x00\x00\x00\x00\x00\x00'
p716
tp717
Rp718
sba(icoord
CoordRequest
p719
(dp720
g4
g5
sg6
g654
sg8
g655
sg20
Nsg21
g22
(S'\x07\xe1\n\x1e\t\x1f\x00\x06c\xf3'
p721
tp722
Rp723
sg26
g27
(g31
S'\x03o\xaf\x92w\xd44@'
p724
tp725
Rp726
sg37
g38
sg39
I0
sg40
I00
sg41
I0
sg42
g27
(g31
S'a2U0*\xa9\x03@'
p727
tp728
Rp729
sg46
Nsg47
I0
sg48
I00
sg49
g50
sg56
g27
(g31
S'\xb0V\x81\x0b\x92\xc1\x07@'
p730
tp731
Rp732
sg60
I00
sg61
g22
(S'\x07\xe1\n\x1e\t\x1e9\x06\xdb\x06'
p733
tp734
Rp735
sg65
g27
(g68
S'\x80\x00\x00\x00\x00\x00\x00\x00'
p736
tp737
Rp738
sba(icoord
CoordRequest
p739
(dp740
g4
g5
sg6
g654
sg8
g655
sg20
Nsg21
g22
(S'\x07\xe1\n\x1e\t\x1f:\x08\xb2\xf2'
p741
tp742
Rp743
sg26
g27
(g31
S'\xfb\xc3\xeaR\x03N\x80@'
p744
tp745
Rp746
sg37
g38
sg39
I0
sg40
I00
sg41
I0
sg42
g27
(g31
S'a2U0*\xa9#@'
p747
tp748
Rp749
sg46
Nsg47
I0
sg48
I00
sg49
g50
sg56
g27
(g31
S'3\xd9M*r\x8fN@'
p750
tp751
Rp752
sg60
I00
sg61
g22
(S'\x07\xe1\n\x1e\t\x1e9\x06\xdb\x92'
p753
tp754
Rp755
sg65
g27
(g68
S'\x00\x02\x00\x00\x00\x00\x00\x00'
p756
tp757
Rp758
sba(icoord
CoordRequest
p759
(dp760
g4
g5
sg6
g654
sg8
g655
sg20
Nsg21
g22
(S'\x07\xe1\n\x1e\n(\x17\x03\x9c?'
p761
tp762
Rp763
sg26
g27
(g31
S'\x90\x88\x07\xd55\xf2\x82@'
p764
tp765
Rp766
sg37
g38
sg39
I0
sg40
I00
sg41
I0
sg42
g27
(g31
S';\xdfO\x8d\x97n\x82@'
p767
tp768
Rp769
sg46
Nsg47
I0
sg48
I00
sg49
g50
sg56
g27
(g31
S'h\xb8:{\xc9E\xb0@'
p770
tp771
Rp772
sg60
I00
sg61
g22
(S'\x07\xe1\n\x1e\t\x1e9\x06\xdc"'
p773
tp774
Rp775
sg65
g27
(g68
S'\x00x\x00\x00\x00\x00\x00\x00'
p776
tp777
Rp778
sba(icoord
CoordRequest
p779
(dp780
g4
g5
sg6
g654
sg8
g655
sg20
Nsg21
g22
(S'\x07\xe1\n\x1e\x0b$\x10\x00[\x1e'
p781
tp782
Rp783
sg26
g27
(g31
S'\x14\x91n\xeb\xdbZ\x92@'
p784
tp785
Rp786
sg37
g38
sg39
I0
sg40
I00
sg41
I0
sg42
g27
(g31
S';\xdfO\x8d\x97n\x82@'
p787
tp788
Rp789
sg46
Nsg47
I0
sg48
I00
sg49
g50
sg56
g27
(g31
S'\xc6\xf6\x93\xd8\x92^\xbd@'
p790
tp791
Rp792
sg60
I00
sg61
g22
(S'\x07\xe1\n\x1e\t\x1e9\x06\xdc\xad'
p793
tp794
Rp795
sg65
g27
(g68
S'\x00x\x00\x00\x00\x00\x00\x00'
p796
tp797
Rp798
sba(icoord
CoordRequest
p799
(dp800
g4
g5
sg6
g654
sg8
g655
sg20
Nsg21
g22
(S'\x07\xe1\n\x1e\t*:\x00`\xcb'
p801
tp802
Rp803
sg26
g27
(g31
S'~$|r\xea\xd2\xab@'
p804
tp805
Rp806
sg37
g38
sg39
I0
sg40
I00
sg41
I0
sg42
g27
(g31
S'\xaeG\xe1z\x14\xae3@'
p807
tp808
Rp809
sg46
Nsg47
I0
sg48
I00
sg49
g50
sg56
g27
(g31
S'P\xad_m\x99\x84\x86@'
p810
tp811
Rp812
sg60
I00
sg61
g22
(S'\x07\xe1\n\x1e\t\x1e9\x06\xddG'
p813
tp814
Rp815
sg65
g27
(g68
S'\x01\x04\x00\x00\x00\x00\x00\x00'
p816
tp817
Rp818
sba(icoord
CoordRequest
p819
(dp820
g4
g5
sg6
g654
sg8
g655
sg20
Nsg21
g22
(S'\x07\xe1\n\x1e\t)\x1e\x03\xfcI'
p821
tp822
Rp823
sg26
g27
(g31
S'\xb9p\xbc/\xa9\xbbk@'
p824
tp825
Rp826
sg37
g38
sg39
I0
sg40
I00
sg41
I0
sg42
g27
(g31
S'\xfa~j\xbct\x93h@'
p827
tp828
Rp829
sg46
Nsg47
I0
sg48
I00
sg49
g50
sg56
g27
(g31
S'N \xf2C}\xc6\x83@'
p830
tp831
Rp832
sg60
I00
sg61
g22
(S'\x07\xe1\n\x1e\t\x1e9\x06\xdd\xec'
p833
tp834
Rp835
sg65
g27
(g68
S'\x00(\x00\x00\x00\x00\x00\x00'
p836
tp837
Rp838
sba(icoord
CoordRequest
p839
(dp840
g4
g5
sg6
g654
sg8
g655
sg20
Nsg21
g22
(S'\x07\xe1\n\x1e\n\x0c"\n\xde\xd4'
p841
tp842
Rp843
sg26
g27
(g31
S'=Q\x7f\xdfAV\x87@'
p844
tp845
Rp846
sg37
g38
sg39
I0
sg40
I00
sg41
I0
sg42
g27
(g31
S';\xdfO\x8d\x97nr@'
p847
tp848
Rp849
sg46
Nsg47
I0
sg48
I00
sg49
g50
sg56
g27
(g31
S'\xacHTA\x86\x82\xa3@'
p850
tp851
Rp852
sg60
I00
sg61
g22
(S'\x07\xe1\n\x1e\t\x1e9\x06\xde\x8b'
p853
tp854
Rp855
sg65
g27
(g68
S'\x00<\x00\x00\x00\x00\x00\x00'
p856
tp857
Rp858
sba(icoord
CoordRequest
p859
(dp860
g4
g5
sg6
g654
sg8
g655
sg20
Nsg21
g22
(S"\x07\xe1\n\x1e\t'\t\rl\xe0"
p861
tp862
Rp863
sg26
g27
(g31
S'\xca\xff\xd7\x15?|u@'
p864
tp865
Rp866
sg37
g38
sg39
I0
sg40
I00
sg41
I0
sg42
g27
(g31
S'\xfa~j\xbct\x93X@'
p867
tp868
Rp869
sg46
Nsg47
I0
sg48
I00
sg49
g50
sg56
g27
(g31
S'\xc8e\xf7\x84\xd3C{@'
p870
tp871
Rp872
sg60
I00
sg61
g22
(S'\x07\xe1\n\x1e\t\x1f5\t\xc6\xbc'
p873
tp874
Rp875
sg65
g27
(g68
S'\x00\x14\x00\x00\x00\x00\x00\x00'
p876
tp877
Rp878
sba(icoord
CoordRequest
p879
(dp880
g4
g5
sg6
g654
sg8
g655
sg20
Nsg21
g22
(S'\x07\xe1\n\x1e\t!\x03\x07,='
p881
tp882
Rp883
sg26
g27
(g31
S'.\xd9\xd9\x00\xb6\x12\x83@'
p884
tp885
Rp886
sg37
g38
sg39
I0
sg40
I00
sg41
I0
sg42
g27
(g31
S'a2U0*\xa9#@'
p887
tp888
Rp889
sg46
Nsg47
I0
sg48
I00
sg49
g50
sg56
g27
(g31
S'\x19-8\xd4\x10uQ@'
p890
tp891
Rp892
sg60
I00
sg61
g22
(S'\x07\xe1\n\x1e\t\x1f5\t\xc7\x9d'
p893
tp894
Rp895
sg65
g27
(g68
S'\x00\x02\x00\x00\x00\x00\x00\x00'
p896
tp897
Rp898
sba(icoord
CoordRequest
p899
(dp900
g4
g5
sg6
g654
sg8
g655
sg20
Nsg21
g22
(S'\x07\xe1\n\x1e\t5\x0b\x0c\x97Z'
p901
tp902
Rp903
sg26
g27
(g31
S'\x86\xbau\xb5\x97\xd6t@'
p904
tp905
Rp906
sg37
g38
sg39
I0
sg40
I00
sg41
I0
sg42
g27
(g31
S';\xdfO\x8d\x97nr@'
p907
tp908
Rp909
sg46
Nsg47
I0
sg48
I00
sg49
g50
sg56
g27
(g31
S'\xde\xd5l\x87\xbc\xf8\x93@'
p910
tp911
Rp912
sg60
I00
sg61
g22
(S'\x07\xe1\n\x1e\t\x1f5\t\xc8,'
p913
tp914
Rp915
sg65
g27
(g68
S'\x00<\x00\x00\x00\x00\x00\x00'
p916
tp917
Rp918
sba(icoord
CoordRequest
p919
(dp920
g4
g5
sg6
g654
sg8
g655
sg20
Nsg21
g22
(S'\x07\xe1\n\x1e\t\x1f8\tQ\xa8'
p921
tp922
Rp923
sg26
g27
(g31
S'\x03o\xaf\x92w\xd44@'
p924
tp925
Rp926
sg37
g38
sg39
I0
sg40
I00
sg41
I0
sg42
g27
(g31
S'a2U0*\xa9\x03@'
p927
tp928
Rp929
sg46
Nsg47
I0
sg48
I00
sg49
g50
sg56
g27
(g31
S'\xb0V\x81\x0b\x92\xc1\x07@'
p930
tp931
Rp932
sg60
I00
sg61
g22
(S'\x07\xe1\n\x1e\t\x1f5\t\xc8\xbb'
p933
tp934
Rp935
sg65
g27
(g68
S'\x80\x00\x00\x00\x00\x00\x00\x00'
p936
tp937
Rp938
sba(icoord
CoordRequest
p939
(dp940
g4
g5
sg6
g654
sg8
g655
sg20
Nsg21
g22
(S'\x07\xe1\n\x1e\t 6\x0b\xa0\xab'
p941
tp942
Rp943
sg26
g27
(g31
S'\xfb\xc3\xeaR\x03N\x80@'
p944
tp945
Rp946
sg37
g38
sg39
I0
sg40
I00
sg41
I0
sg42
g27
(g31
S'a2U0*\xa9#@'
p947
tp948
Rp949
sg46
Nsg47
I0
sg48
I00
sg49
g50
sg56
g27
(g31
S'3\xd9M*r\x8fN@'
p950
tp951
Rp952
sg60
I00
sg61
g22
(S'\x07\xe1\n\x1e\t\x1f5\t\xc9K'
p953
tp954
Rp955
sg65
g27
(g68
S'\x00\x02\x00\x00\x00\x00\x00\x00'
p956
tp957
Rp958
sba(icoord
CoordRequest
p959
(dp960
g4
g5
sg6
g654
sg8
g655
sg20
Nsg21
g22
(S'\x07\xe1\n\x1e\n)\x13\x06\x8a\n'
p961
tp962
Rp963
sg26
g27
(g31
S'\x90\x88\x07\xd55\xf2\x82@'
p964
tp965
Rp966
sg37
g38
sg39
I0
sg40
I00
sg41
I0
sg42
g27
(g31
S';\xdfO\x8d\x97n\x82@'
p967
tp968
Rp969
sg46
Nsg47
I0
sg48
I00
sg49
g50
sg56
g27
(g31
S'h\xb8:{\xc9E\xb0@'
p970
tp971
Rp972
sg60
I00
sg61
g22
(S'\x07\xe1\n\x1e\t\x1f5\t\xc9\xed'
p973
tp974
Rp975
sg65
g27
(g68
S'\x00x\x00\x00\x00\x00\x00\x00'
p976
tp977
Rp978
sba(icoord
CoordRequest
p979
(dp980
g4
g5
sg6
g654
sg8
g655
sg20
Nsg21
g22
(S'\x07\xe1\n\x1e\x0b%\x0c\x03I\x01'
p981
tp982
Rp983
sg26
g27
(g31
S'\x14\x91n\xeb\xdbZ\x92@'
p984
tp985
Rp986
sg37
g38
sg39
I0
sg40
I00
sg41
I0
sg42
g27
(g31
S';\xdfO\x8d\x97n\x82@'
p987
tp988
Rp989
sg46
Nsg47
I0
sg48
I00
sg49
g50
sg56
g27
(g31
S'\xc6\xf6\x93\xd8\x92^\xbd@'
p990
tp991
Rp992
sg60
I00
sg61
g22
(S'\x07\xe1\n\x1e\t\x1f5\t\xca\x90'
p993
tp994
Rp995
sg65
g27
(g68
S'\x00x\x00\x00\x00\x00\x00\x00'
p996
tp997
Rp998
sba(icoord
CoordRequest
p999
(dp1000
g4
g5
sg6
g654
sg8
g655
sg20
Nsg21
g22
(S'\x07\xe1\n\x1e\t+6\x03O\x19'
p1001
tp1002
Rp1003
sg26
g27
(g31
S'~$|r\xea\xd2\xab@'
p1004
tp1005
Rp1006
sg37
g38
sg39
I0
sg40
I00
sg41
I0
sg42
g27
(g31
S'\xaeG\xe1z\x14\xae3@'
p1007
tp1008
Rp1009
sg46
Nsg47
I0
sg48
I00
sg49
g50
sg56
g27
(g31
S'P\xad_m\x99\x84\x86@'
p1010
tp1011
Rp1012
sg60
I00
sg61
g22
(S'\x07\xe1\n\x1e\t\x1f5\t\xcb\x95'
p1013
tp1014
Rp1015
sg65
g27
(g68
S'\x01\x04\x00\x00\x00\x00\x00\x00'
p1016
tp1017
Rp1018
sba(icoord
CoordRequest
p1019
(dp1020
g4
g5
sg6
g654
sg8
g655
sg20
Nsg21
g22
(S'\x07\xe1\n\x1e\t*\x1a\x06\xea\xec'
p1021
tp1022
Rp1023
sg26
g27
(g31
S'\xb9p\xbc/\xa9\xbbk@'
p1024
tp1025
Rp1026
sg37
g38
sg39
I0
sg40
I00
sg41
I0
sg42
g27
(g31
S'\xfa~j\xbct\x93h@'
p1027
tp1028
Rp1029
sg46
Nsg47
I0
sg48
I00
sg49
g50
sg56
g27
(g31
S'N \xf2C}\xc6\x83@'
p1030
tp1031
Rp1032
sg60
I00
sg61
g22
(S'\x07\xe1\n\x1e\t\x1f5\t\xcc\x8f'
p1033
tp1034
Rp1035
sg65
g27
(g68
S'\x00(\x00\x00\x00\x00\x00\x00'
p1036
tp1037
Rp1038
sba(icoord
CoordRequest
p1039
(dp1040
g4
g5
sg6
g654
sg8
g655
sg20
Nsg21
g22
(S'\x07\xe1\n\x1e\n\r\x1e\r\xcdr'
p1041
tp1042
Rp1043
sg26
g27
(g31
S'=Q\x7f\xdfAV\x87@'
p1044
tp1045
Rp1046
sg37
g38
sg39
I0
sg40
I00
sg41
I0
sg42
g27
(g31
S';\xdfO\x8d\x97nr@'
p1047
tp1048
Rp1049
sg46
Nsg47
I0
sg48
I00
sg49
g50
sg56
g27
(g31
S'\xacHTA\x86\x82\xa3@'
p1050
tp1051
Rp1052
sg60
I00
sg61
g22
(S'\x07\xe1\n\x1e\t\x1f5\t\xcd)'
p1053
tp1054
Rp1055
sg65
g27
(g68
S'\x00<\x00\x00\x00\x00\x00\x00'
p1056
tp1057
Rp1058
sbag652
a(icoord
CoordRequest
p1059
(dp1060
g4
g5
sg6
g654
sg8
g655
sg20
Nsg21
g22
(S'\x07\xe1\n\x1e\t!\x15\t\xc0\xf5'
p1061
tp1062
Rp1063
sg26
g27
(g31
S'.\xd9\xd9\x00\xb6\x12\x83@'
p1064
tp1065
Rp1066
sg37
g38
sg39
I0
sg40
I00
sg41
I0
sg42
g27
(g31
S'a2U0*\xa9#@'
p1067
tp1068
Rp1069
sg46
Nsg47
I0
sg48
I00
sg49
g50
sg56
g27
(g31
S'\x19-8\xd4\x10uQ@'
p1070
tp1071
Rp1072
sg60
I00
sg61
g22
(S'\x07\xe1\n\x1e\t \x0b\x0c\\U'
p1073
tp1074
Rp1075
sg65
g27
(g68
S'\x00\x02\x00\x00\x00\x00\x00\x00'
p1076
tp1077
Rp1078
sba(icoord
CoordRequest
p1079
(dp1080
g4
g5
sg6
g654
sg8
g655
sg20
Nsg21
g22
(S'\x07\xe1\n\x1e\t5\x1d\x0f,\x0c'
p1081
tp1082
Rp1083
sg26
g27
(g31
S'\x86\xbau\xb5\x97\xd6t@'
p1084
tp1085
Rp1086
sg37
g38
sg39
I0
sg40
I00
sg41
I0
sg42
g27
(g31
S';\xdfO\x8d\x97nr@'
p1087
tp1088
Rp1089
sg46
Nsg47
I0
sg48
I00
sg49
g50
sg56
g27
(g31
S'\xde\xd5l\x87\xbc\xf8\x93@'
p1090
tp1091
Rp1092
sg60
I00
sg61
g22
(S'\x07\xe1\n\x1e\t \x0b\x0c\\\xde'
p1093
tp1094
Rp1095
sg65
g27
(g68
S'\x00<\x00\x00\x00\x00\x00\x00'
p1096
tp1097
Rp1098
sba(icoord
CoordRequest
p1099
(dp1100
g4
g5
sg6
g654
sg8
g655
sg20
Nsg21
g22
(S'\x07\xe1\n\x1e\t \x0e\x0b\xe6T'
p1101
tp1102
Rp1103
sg26
g27
(g31
S'\x03o\xaf\x92w\xd44@'
p1104
tp1105
Rp1106
sg37
g38
sg39
I0
sg40
I00
sg41
I0
sg42
g27
(g31
S'a2U0*\xa9\x03@'
p1107
tp1108
Rp1109
sg46
Nsg47
I0
sg48
I00
sg49
g50
sg56
g27
(g31
S'\xb0V\x81\x0b\x92\xc1\x07@'
p1110
tp1111
Rp1112
sg60
I00
sg61
g22
(S'\x07\xe1\n\x1e\t \x0b\x0c]g'
p1113
tp1114
Rp1115
sg65
g27
(g68
S'\x80\x00\x00\x00\x00\x00\x00\x00'
p1116
tp1117
Rp1118
sba(icoord
CoordRequest
p1119
(dp1120
g4
g5
sg6
g654
sg8
g655
sg20
Nsg21
g22
(S'\x07\xe1\n\x1e\t!\x0c\x0e5\xa4'
p1121
tp1122
Rp1123
sg26
g27
(g31
S'\xfb\xc3\xeaR\x03N\x80@'
p1124
tp1125
Rp1126
sg37
g38
sg39
I0
sg40
I00
sg41
I0
sg42
g27
(g31
S'a2U0*\xa9#@'
p1127
tp1128
Rp1129
sg46
Nsg47
I0
sg48
I00
sg49
g50
sg56
g27
(g31
S'3\xd9M*r\x8fN@'
p1130
tp1131
Rp1132
sg60
I00
sg61
g22
(S'\x07\xe1\n\x1e\t \x0b\x0c^D'
p1133
tp1134
Rp1135
sg65
g27
(g68
S'\x00\x02\x00\x00\x00\x00\x00\x00'
p1136
tp1137
Rp1138
sba(icoord
CoordRequest
p1139
(dp1140
g4
g5
sg6
g654
sg8
g655
sg20
Nsg21
g22
(S"\x07\xe1\n\x1e\n)%\t\x1f'"
p1141
tp1142
Rp1143
sg26
g27
(g31
S'\x90\x88\x07\xd55\xf2\x82@'
p1144
tp1145
Rp1146
sg37
g38
sg39
I0
sg40
I00
sg41
I0
sg42
g27
(g31
S';\xdfO\x8d\x97n\x82@'
p1147
tp1148
Rp1149
sg46
Nsg47
I0
sg48
I00
sg49
g50
sg56
g27
(g31
S'h\xb8:{\xc9E\xb0@'
p1150
tp1151
Rp1152
sg60
I00
sg61
g22
(S'\x07\xe1\n\x1e\t \x0b\x0c_\n'
p1153
tp1154
Rp1155
sg65
g27
(g68
S'\x00x\x00\x00\x00\x00\x00\x00'
p1156
tp1157
Rp1158
sba(icoord
CoordRequest
p1159
(dp1160
g4
g5
sg6
g654
sg8
g655
sg20
Nsg21
g22
(S'\x07\xe1\n\x1e\x0b%\x1e\x05\xde\x10'
p1161
tp1162
Rp1163
sg26
g27
(g31
S'\x14\x91n\xeb\xdbZ\x92@'
p1164
tp1165
Rp1166
sg37
g38
sg39
I0
sg40
I00
sg41
I0
sg42
g27
(g31
S';\xdfO\x8d\x97n\x82@'
p1167
tp1168
Rp1169
sg46
Nsg47
I0
sg48
I00
sg49
g50
sg56
g27
(g31
S'\xc6\xf6\x93\xd8\x92^\xbd@'
p1170
tp1171
Rp1172
sg60
I00
sg61
g22
(S'\x07\xe1\n\x1e\t \x0b\x0c_\x9f'
p1173
tp1174
Rp1175
sg65
g27
(g68
S'\x00x\x00\x00\x00\x00\x00\x00'
p1176
tp1177
Rp1178
sba(icoord
CoordRequest
p1179
(dp1180
g4
g5
sg6
g654
sg8
g655
sg20
Nsg21
g22
(S'\x07\xe1\n\x1e\t,\x0c\x05\xe3\xae'
p1181
tp1182
Rp1183
sg26
g27
(g31
S'~$|r\xea\xd2\xab@'
p1184
tp1185
Rp1186
sg37
g38
sg39
I0
sg40
I00
sg41
I0
sg42
g27
(g31
S'\xaeG\xe1z\x14\xae3@'
p1187
tp1188
Rp1189
sg46
Nsg47
I0
sg48
I00
sg49
g50
sg56
g27
(g31
S'P\xad_m\x99\x84\x86@'
p1190
tp1191
Rp1192
sg60
I00
sg61
g22
(S'\x07\xe1\n\x1e\t \x0b\x0c`*'
p1193
tp1194
Rp1195
sg65
g27
(g68
S'\x01\x04\x00\x00\x00\x00\x00\x00'
p1196
tp1197
Rp1198
sba(icoord
CoordRequest
p1199
(dp1200
g4
g5
sg6
g654
sg8
g655
sg20
Nsg21
g22
(S'\x07\xe1\n\x1e\t*,\t\x7f\x1c'
p1201
tp1202
Rp1203
sg26
g27
(g31
S'\xb9p\xbc/\xa9\xbbk@'
p1204
tp1205
Rp1206
sg37
g38
sg39
I0
sg40
I00
sg41
I0
sg42
g27
(g31
S'\xfa~j\xbct\x93h@'
p1207
tp1208
Rp1209
sg46
Nsg47
I0
sg48
I00
sg49
g50
sg56
g27
(g31
S'N \xf2C}\xc6\x83@'
p1210
tp1211
Rp1212
sg60
I00
sg61
g22
(S'\x07\xe1\n\x1e\t \x0b\x0c`\xbf'
p1213
tp1214
Rp1215
sg65
g27
(g68
S'\x00(\x00\x00\x00\x00\x00\x00'
p1216
tp1217
Rp1218
sba(icoord
CoordRequest
p1219
(dp1220
g4
g5
sg6
g654
sg8
g655
sg20
Nsg21
g22
(S'\x07\xe1\n\x1e\n\r1\x01\x1fe'
p1221
tp1222
Rp1223
sg26
g27
(g31
S'=Q\x7f\xdfAV\x87@'
p1224
tp1225
Rp1226
sg37
g38
sg39
I0
sg40
I00
sg41
I0
sg42
g27
(g31
S';\xdfO\x8d\x97nr@'
p1227
tp1228
Rp1229
sg46
Nsg47
I0
sg48
I00
sg49
g50
sg56
g27
(g31
S'\xacHTA\x86\x82\xa3@'
p1230
tp1231
Rp1232
sg60
I00
sg61
g22
(S'\x07\xe1\n\x1e\t \x0b\x0ca\\'
p1233
tp1234
Rp1235
sg65
g27
(g68
S'\x00<\x00\x00\x00\x00\x00\x00'
p1236
tp1237
Rp1238
sbasg54
g55
sbsg20
Nsg21
g22
(S"\x07\xe1\n\x1e\t'\x1c\x00\xbf\x92"
p1239
tp1240
Rp1241
sg26
g27
(g31
S'\xca\xff\xd7\x15?|u@'
p1242
tp1243
Rp1244
sg37
g38
sg39
I0
sg40
I00
sg41
I0
sg42
g27
(g31
S'\xfa~j\xbct\x93X@'
p1245
tp1246
Rp1247
sg46
Nsg47
I0
sg48
I00
sg49
g50
sg56
g27
(g31
S'\xc8e\xf7\x84\xd3C{@'
p1248
tp1249
Rp1250
sg60
I00
sg61
g22
(S'\x07\xe1\n\x1e\t \x0b\x0c[\xae'
p1251
tp1252
Rp1253
sg65
g27
(g68
S'\x00\x14\x00\x00\x00\x00\x00\x00'
p1254
tp1255
Rp1256
sba(icoord
CoordRequest
p1257
(dp1258
g4
g5
sg6
S'amst-190'
p1259
sg8
(icoord
DTN
p1260
(dp1261
g11
Nsg12
g1259
sg13
S'192.168.120.190'
p1262
sg15
Nsg16
(lp1263
(icoord
CoordRequest
p1264
(dp1265
g4
g5
sg6
g1259
sg8
g1260
sg20
Nsg21
g22
(S'\x07\xe1\n\x1e\x0b\x03#\x0b\xc7x'
p1266
tp1267
Rp1268
sg26
g27
(g31
S'\xab\xa2\x0eS\xf5R\x8a@'
p1269
tp1270
Rp1271
sg37
g38
sg39
I0
sg40
I00
sg41
I0
sg42
g27
(g31
S';\xdfO\x8d\x97n\x82@'
p1272
tp1273
Rp1274
sg46
Nsg47
I0
sg48
I00
sg49
g50
sg56
g27
(g31
S'\x84\x99\x8e\xbbR\xb6\xb5@'
p1275
tp1276
Rp1277
sg60
I00
sg61
g22
(S'\x07\xe1\n\x1e\t\x1e9\x06\xd9\x12'
p1278
tp1279
Rp1280
sg65
g27
(g68
S'\x00x\x00\x00\x00\x00\x00\x00'
p1281
tp1282
Rp1283
sba(icoord
CoordRequest
p1284
(dp1285
g4
g5
sg6
g1259
sg8
g1260
sg20
Nsg21
g22
(S"\x07\xe1\n\x1e\n\x04'\x062\x97"
p1286
tp1287
Rp1288
sg26
g27
(g31
S'G2\x83\xe9\xd1Yn@'
p1289
tp1290
Rp1291
sg37
g38
sg39
I0
sg40
I00
sg41
I0
sg42
g27
(g31
S';\xdfO\x8d\x97n\x82@'
p1292
tp1293
Rp1294
sg46
Nsg47
I0
sg48
I00
sg49
g50
sg56
g27
(g31
S'*\xf4\xa00\xd4\x97\x9f@'
p1295
tp1296
Rp1297
sg60
I00
sg61
g22
(S'\x07\xe1\n\x1e\t\x1e9\x06\xd9\xb6'
p1298
tp1299
Rp1300
sg65
g27
(g68
S'\x00x\x00\x00\x00\x00\x00\x00'
p1301
tp1302
Rp1303
sba(icoord
CoordRequest
p1304
(dp1305
g4
g5
sg6
g1259
sg8
g1260
sg20
Nsg21
g22
(S'\x07\xe1\n\x1e\x0b\x07%\n\xca\xa0'
p1306
tp1307
Rp1308
sg26
g27
(g31
S'b\xfa\xd6~\x1a\x9b\x8b@'
p1309
tp1310
Rp1311
sg37
g38
sg39
I0
sg40
I00
sg41
I0
sg42
g27
(g31
S';\xdfO\x8d\x97n\x82@'
p1312
tp1313
Rp1314
sg46
Nsg47
I0
sg48
I00
sg49
g50
sg56
g27
(g31
S'\xbc\xea\xac\x10B\xa8\xb6@'
p1315
tp1316
Rp1317
sg60
I00
sg61
g22
(S'\x07\xe1\n\x1e\t\x1e9\x06\xda\x8d'
p1318
tp1319
Rp1320
sg65
g27
(g68
S'\x00x\x00\x00\x00\x00\x00\x00'
p1321
tp1322
Rp1323
sba(icoord
CoordRequest
p1324
(dp1325
g4
g5
sg6
g1259
sg8
g1260
sg20
Nsg21
g22
(S'\x07\xe1\n\x1e\t\x1f\t\x08\xcf\xc3'
p1326
tp1327
Rp1328
sg26
g27
(g31
S'=\x9e\xdb\xd4\xf0\x97x@'
p1329
tp1330
Rp1331
sg37
g38
sg39
I0
sg40
I00
sg41
I0
sg42
g27
(g31
S'a2U0*\xa9\x03@'
p1332
tp1333
Rp1334
sg46
Nsg47
I0
sg48
I00
sg49
g50
sg56
g27
(g31
S'OCg\xd7\x9eA(@'
p1335
tp1336
Rp1337
sg60
I00
sg61
g22
(S'\x07\xe1\n\x1e\t\x1e9\x06\xdb\x1e'
p1338
tp1339
Rp1340
sg65
g27
(g68
S'\x80\x00\x00\x00\x00\x00\x00\x00'
p1341
tp1342
Rp1343
sba(icoord
CoordRequest
p1344
(dp1345
g4
g5
sg6
g1259
sg8
g1260
sg20
Nsg21
g22
(S'\x07\xe1\n\x1e\n\x13\x19\x02\xd5^'
p1346
tp1347
Rp1348
sg26
g27
(g31
S'D7\xeb\xf5\xcd\x8b\x95@'
p1349
tp1350
Rp1351
sg37
g38
sg39
I0
sg40
I00
sg41
I0
sg42
g27
(g31
S'\xfa~j\xbct\x93h@'
p1352
tp1353
Rp1354
sg46
Nsg47
I0
sg48
I00
sg49
g50
sg56
g27
(g31
S'2[\x06\xf5x\xb7\xa6@'
p1355
tp1356
Rp1357
sg60
I00
sg61
g22
(S'\x07\xe1\n\x1e\t\x1e9\x06\xdb\xaa'
p1358
tp1359
Rp1360
sg65
g27
(g68
S'\x00(\x00\x00\x00\x00\x00\x00'
p1361
tp1362
Rp1363
sba(icoord
CoordRequest
p1364
(dp1365
g4
g5
sg6
g1259
sg8
g1260
sg20
Nsg21
g22
(S'\x07\xe1\n\x1e\t!\x1b\x0cV\x16'
p1366
tp1367
Rp1368
sg26
g27
(g31
S'$\x89_T\x1eV\x96@'
p1369
tp1370
Rp1371
sg37
g38
sg39
I0
sg40
I00
sg41
I0
sg42
g27
(g31
S'a2U0*\xa9#@'
p1372
tp1373
Rp1374
sg46
Nsg47
I0
sg48
I00
sg49
g50
sg56
g27
(g31
S"n\x98'\xf1{\xcbb@"
p1375
tp1376
Rp1377
sg60
I00
sg61
g22
(S'\x07\xe1\n\x1e\t\x1e9\x06\xdc6'
p1378
tp1379
Rp1380
sg65
g27
(g68
S'\x00\x02\x00\x00\x00\x00\x00\x00'
p1381
tp1382
Rp1383
sba(icoord
CoordRequest
p1384
(dp1385
g4
g5
sg6
g1259
sg8
g1260
sg20
Nsg21
g22
(S'\x07\xe1\n\x1e\t\x1f\t\x03\xd6E'
p1386
tp1387
Rp1388
sg26
g27
(g31
S'\xda\xaa\xf26j\xc3w@'
p1389
tp1390
Rp1391
sg37
g38
sg39
I0
sg40
I00
sg41
I0
sg42
g27
(g31
S'a2U0*\xa9\x03@'
p1392
tp1393
Rp1394
sg46
Nsg47
I0
sg48
I00
sg49
g50
sg56
g27
(g31
S"`P\xa7\xbc{\x9a'@"
p1395
tp1396
Rp1397
sg60
I00
sg61
g22
(S'\x07\xe1\n\x1e\t\x1e9\x06\xdc\xc8'
p1398
tp1399
Rp1400
sg65
g27
(g68
S'\x80\x00\x00\x00\x00\x00\x00\x00'
p1401
tp1402
Rp1403
sba(icoord
CoordRequest
p1404
(dp1405
g4
g5
sg6
g1259
sg8
g1260
sg20
Nsg21
g22
(S'\x07\xe1\n\x1e\t 8\x0c\xe1\xf2'
p1406
tp1407
Rp1408
sg26
g27
(g31
S'\xc1\x08\xe7vIt5@'
p1409
tp1410
Rp1411
sg37
g38
sg39
I0
sg40
I00
sg41
I0
sg42
g27
(g31
S'\xfa~j\xbct\x93X@'
p1412
tp1413
Rp1414
sg46
Nsg47
I0
sg48
I00
sg49
g50
sg56
g27
(g31
S'|\x89\xdc\x8d=\xd9]@'
p1415
tp1416
Rp1417
sg60
I00
sg61
g22
(S'\x07\xe1\n\x1e\t\x1e9\x06\xddd'
p1418
tp1419
Rp1420
sg65
g27
(g68
S'\x00\x14\x00\x00\x00\x00\x00\x00'
p1421
tp1422
Rp1423
sba(icoord
CoordRequest
p1424
(dp1425
g4
g5
sg6
g1259
sg8
g1260
sg20
Nsg21
g22
(S'\x07\xe1\n\x1e\t&*\x0f(b'
p1426
tp1427
Rp1428
sg26
g27
(g31
S'\xea\xb2Og\xc0\x1b\xb2@'
p1429
tp1430
Rp1431
sg37
g38
sg39
I0
sg40
I00
sg41
I0
sg42
g27
(g31
S'a2U0*\xa9#@'
p1432
tp1433
Rp1434
sg46
Nsg47
I0
sg48
I00
sg49
g50
sg56
g27
(g31
S'\xe7els\xb1\x18}@'
p1435
tp1436
Rp1437
sg60
I00
sg61
g22
(S'\x07\xe1\n\x1e\t\x1e9\x06\xde\x07'
p1438
tp1439
Rp1440
sg65
g27
(g68
S'\x00\x02\x00\x00\x00\x00\x00\x00'
p1441
tp1442
Rp1443
sba(icoord
CoordRequest
p1444
(dp1445
g4
g5
sg6
g1259
sg8
g1260
sg20
Nsg21
g22
(S'\x07\xe1\n\x1e\r9*\t\x033'
p1446
tp1447
Rp1448
sg26
g27
(g31
S'\x0bL[\x1b\x17k\xa4@'
p1449
tp1450
Rp1451
sg37
g38
sg39
I0
sg40
I00
sg41
I0
sg42
g27
(g31
S';\xdfO\x8d\x97n\x82@'
p1452
tp1453
Rp1454
sg46
Nsg47
I0
sg48
I00
sg49
g50
sg56
g27
(g31
S'\xea\x03\xa5\xf9\x91B\xcf@'
p1455
tp1456
Rp1457
sg60
I00
sg61
g22
(S'\x07\xe1\n\x1e\t\x1e9\x06\xde\xa4'
p1458
tp1459
Rp1460
sg65
g27
(g68
S'\x00x\x00\x00\x00\x00\x00\x00'
p1461
tp1462
Rp1463
sba(icoord
CoordRequest
p1464
(dp1465
g4
g5
sg6
g1259
sg8
g1260
sg20
Nsg21
g22
(S'\x07\xe1\n\x1e\x0b\x04\x1f\x0e\xb5W'
p1466
tp1467
Rp1468
sg26
g27
(g31
S'\xab\xa2\x0eS\xf5R\x8a@'
p1469
tp1470
Rp1471
sg37
g38
sg39
I0
sg40
I00
sg41
I0
sg42
g27
(g31
S';\xdfO\x8d\x97n\x82@'
p1472
tp1473
Rp1474
sg46
Nsg47
I0
sg48
I00
sg49
g50
sg56
g27
(g31
S'\x84\x99\x8e\xbbR\xb6\xb5@'
p1475
tp1476
Rp1477
sg60
I00
sg61
g22
(S'\x07\xe1\n\x1e\t\x1f5\t\xc6\xf1'
p1478
tp1479
Rp1480
sg65
g27
(g68
S'\x00x\x00\x00\x00\x00\x00\x00'
p1481
tp1482
Rp1483
sba(icoord
CoordRequest
p1484
(dp1485
g4
g5
sg6
g1259
sg8
g1260
sg20
Nsg21
g22
(S'\x07\xe1\n\x1e\n\x05#\t \x96'
p1486
tp1487
Rp1488
sg26
g27
(g31
S'G2\x83\xe9\xd1Yn@'
p1489
tp1490
Rp1491
sg37
g38
sg39
I0
sg40
I00
sg41
I0
sg42
g27
(g31
S';\xdfO\x8d\x97n\x82@'
p1492
tp1493
Rp1494
sg46
Nsg47
I0
sg48
I00
sg49
g50
sg56
g27
(g31
S'*\xf4\xa00\xd4\x97\x9f@'
p1495
tp1496
Rp1497
sg60
I00
sg61
g22
(S'\x07\xe1\n\x1e\t\x1f5\t\xc7\xb5'
p1498
tp1499
Rp1500
sg65
g27
(g68
S'\x00x\x00\x00\x00\x00\x00\x00'
p1501
tp1502
Rp1503
sba(icoord
CoordRequest
p1504
(dp1505
g4
g5
sg6
g1259
sg8
g1260
sg20
Nsg21
g22
(S'\x07\xe1\n\x1e\x0b\x08!\r\xb8U'
p1506
tp1507
Rp1508
sg26
g27
(g31
S'b\xfa\xd6~\x1a\x9b\x8b@'
p1509
tp1510
Rp1511
sg37
g38
sg39
I0
sg40
I00
sg41
I0
sg42
g27
(g31
S';\xdfO\x8d\x97n\x82@'
p1512
tp1513
Rp1514
sg46
Nsg47
I0
sg48
I00
sg49
g50
sg56
g27
(g31
S'\xbc\xea\xac\x10B\xa8\xb6@'
p1515
tp1516
Rp1517
sg60
I00
sg61
g22
(S'\x07\xe1\n\x1e\t\x1f5\t\xc8B'
p1518
tp1519
Rp1520
sg65
g27
(g68
S'\x00x\x00\x00\x00\x00\x00\x00'
p1521
tp1522
Rp1523
sba(icoord
CoordRequest
p1524
(dp1525
g4
g5
sg6
g1259
sg8
g1260
sg20
Nsg21
g22
(S'\x07\xe1\n\x1e\t \x05\x0b\xbdx'
p1526
tp1527
Rp1528
sg26
g27
(g31
S'=\x9e\xdb\xd4\xf0\x97x@'
p1529
tp1530
Rp1531
sg37
g38
sg39
I0
sg40
I00
sg41
I0
sg42
g27
(g31
S'a2U0*\xa9\x03@'
p1532
tp1533
Rp1534
sg46
Nsg47
I0
sg48
I00
sg49
g50
sg56
g27
(g31
S'OCg\xd7\x9eA(@'
p1535
tp1536
Rp1537
sg60
I00
sg61
g22
(S'\x07\xe1\n\x1e\t\x1f5\t\xc8\xd3'
p1538
tp1539
Rp1540
sg65
g27
(g68
S'\x80\x00\x00\x00\x00\x00\x00\x00'
p1541
tp1542
Rp1543
sba(icoord
CoordRequest
p1544
(dp1545
g4
g5
sg6
g1259
sg8
g1260
sg20
Nsg21
g22
(S'\x07\xe1\n\x1e\n\x14\x15\x05\xc3\x19'
p1546
tp1547
Rp1548
sg26
g27
(g31
S'D7\xeb\xf5\xcd\x8b\x95@'
p1549
tp1550
Rp1551
sg37
g38
sg39
I0
sg40
I00
sg41
I0
sg42
g27
(g31
S'\xfa~j\xbct\x93h@'
p1552
tp1553
Rp1554
sg46
Nsg47
I0
sg48
I00
sg49
g50
sg56
g27
(g31
S'2[\x06\xf5x\xb7\xa6@'
p1555
tp1556
Rp1557
sg60
I00
sg61
g22
(S'\x07\xe1\n\x1e\t\x1f5\t\xc9e'
p1558
tp1559
Rp1560
sg65
g27
(g68
S'\x00(\x00\x00\x00\x00\x00\x00'
p1561
tp1562
Rp1563
sba(icoord
CoordRequest
p1564
(dp1565
g4
g5
sg6
g1259
sg8
g1260
sg20
Nsg21
g22
(S'\x07\xe1\n\x1e\t"\x18\x00\x01\xa9'
p1566
tp1567
Rp1568
sg26
g27
(g31
S'$\x89_T\x1eV\x96@'
p1569
tp1570
Rp1571
sg37
g38
sg39
I0
sg40
I00
sg41
I0
sg42
g27
(g31
S'a2U0*\xa9#@'
p1572
tp1573
Rp1574
sg46
Nsg47
I0
sg48
I00
sg49
g50
sg56
g27
(g31
S"n\x98'\xf1{\xcbb@"
p1575
tp1576
Rp1577
sg60
I00
sg61
g22
(S'\x07\xe1\n\x1e\t\x1f5\t\xca\t'
p1578
tp1579
Rp1580
sg65
g27
(g68
S'\x00\x02\x00\x00\x00\x00\x00\x00'
p1581
tp1582
Rp1583
sba(icoord
CoordRequest
p1584
(dp1585
g4
g5
sg6
g1259
sg8
g1260
sg20
Nsg21
g22
(S'\x07\xe1\n\x1e\t \x05\x06\xc4*'
p1586
tp1587
Rp1588
sg26
g27
(g31
S'\xda\xaa\xf26j\xc3w@'
p1589
tp1590
Rp1591
sg37
g38
sg39
I0
sg40
I00
sg41
I0
sg42
g27
(g31
S'a2U0*\xa9\x03@'
p1592
tp1593
Rp1594
sg46
Nsg47
I0
sg48
I00
sg49
g50
sg56
g27
(g31
S"`P\xa7\xbc{\x9a'@"
p1595
tp1596
Rp1597
sg60
I00
sg61
g22
(S'\x07\xe1\n\x1e\t\x1f5\t\xca\xad'
p1598
tp1599
Rp1600
sg65
g27
(g68
S'\x80\x00\x00\x00\x00\x00\x00\x00'
p1601
tp1602
Rp1603
sba(icoord
CoordRequest
p1604
(dp1605
g4
g5
sg6
g1259
sg8
g1260
sg20
Nsg21
g22
(S'\x07\xe1\n\x1e\t!5\x00\x8e\x16'
p1606
tp1607
Rp1608
sg26
g27
(g31
S'\xc1\x08\xe7vIt5@'
p1609
tp1610
Rp1611
sg37
g38
sg39
I0
sg40
I00
sg41
I0
sg42
g27
(g31
S'\xfa~j\xbct\x93X@'
p1612
tp1613
Rp1614
sg46
Nsg47
I0
sg48
I00
sg49
g50
sg56
g27
(g31
S'|\x89\xdc\x8d=\xd9]@'
p1615
tp1616
Rp1617
sg60
I00
sg61
g22
(S'\x07\xe1\n\x1e\t\x1f5\t\xcb\xc8'
p1618
tp1619
Rp1620
sg65
g27
(g68
S'\x00\x14\x00\x00\x00\x00\x00\x00'
p1621
tp1622
Rp1623
sba(icoord
CoordRequest
p1624
(dp1625
g4
g5
sg6
g1259
sg8
g1260
sg20
Nsg21
g22
(S"\x07\xe1\n\x1e\t''\x02\xd4\xc4"
p1626
tp1627
Rp1628
sg26
g27
(g31
S'\xea\xb2Og\xc0\x1b\xb2@'
p1629
tp1630
Rp1631
sg37
g38
sg39
I0
sg40
I00
sg41
I0
sg42
g27
(g31
S'a2U0*\xa9#@'
p1632
tp1633
Rp1634
sg46
Nsg47
I0
sg48
I00
sg49
g50
sg56
g27
(g31
S'\xe7els\xb1\x18}@'
p1635
tp1636
Rp1637
sg60
I00
sg61
g22
(S'\x07\xe1\n\x1e\t\x1f5\t\xcc\xa9'
p1638
tp1639
Rp1640
sg65
g27
(g68
S'\x00\x02\x00\x00\x00\x00\x00\x00'
p1641
tp1642
Rp1643
sba(icoord
CoordRequest
p1644
(dp1645
g4
g5
sg6
g1259
sg8
g1260
sg20
Nsg21
g22
(S'\x07\xe1\n\x1e\r:&\x0b\xf1\xd1'
p1646
tp1647
Rp1648
sg26
g27
(g31
S'\x0bL[\x1b\x17k\xa4@'
p1649
tp1650
Rp1651
sg37
g38
sg39
I0
sg40
I00
sg41
I0
sg42
g27
(g31
S';\xdfO\x8d\x97n\x82@'
p1652
tp1653
Rp1654
sg46
Nsg47
I0
sg48
I00
sg49
g50
sg56
g27
(g31
S'\xea\x03\xa5\xf9\x91B\xcf@'
p1655
tp1656
Rp1657
sg60
I00
sg61
g22
(S'\x07\xe1\n\x1e\t\x1f5\t\xcdB'
p1658
tp1659
Rp1660
sg65
g27
(g68
S'\x00x\x00\x00\x00\x00\x00\x00'
p1661
tp1662
Rp1663
sbag1257
a(icoord
CoordRequest
p1664
(dp1665
g4
g5
sg6
g1259
sg8
g1260
sg20
Nsg21
g22
(S'\x07\xe1\n\x1e\n\x055\x0b\xb5M'
p1666
tp1667
Rp1668
sg26
g27
(g31
S'G2\x83\xe9\xd1Yn@'
p1669
tp1670
Rp1671
sg37
g38
sg39
I0
sg40
I00
sg41
I0
sg42
g27
(g31
S';\xdfO\x8d\x97n\x82@'
p1672
tp1673
Rp1674
sg46
Nsg47
I0
sg48
I00
sg49
g50
sg56
g27
(g31
S'*\xf4\xa00\xd4\x97\x9f@'
p1675
tp1676
Rp1677
sg60
I00
sg61
g22
(S'\x07\xe1\n\x1e\t \x0b\x0c\\l'
p1678
tp1679
Rp1680
sg65
g27
(g68
S'\x00x\x00\x00\x00\x00\x00\x00'
p1681
tp1682
Rp1683
sba(icoord
CoordRequest
p1684
(dp1685
g4
g5
sg6
g1259
sg8
g1260
sg20
Nsg21
g22
(S'\x07\xe1\n\x1e\x0b\x084\x01\n\xc6'
p1686
tp1687
Rp1688
sg26
g27
(g31
S'b\xfa\xd6~\x1a\x9b\x8b@'
p1689
tp1690
Rp1691
sg37
g38
sg39
I0
sg40
I00
sg41
I0
sg42
g27
(g31
S';\xdfO\x8d\x97n\x82@'
p1692
tp1693
Rp1694
sg46
Nsg47
I0
sg48
I00
sg49
g50
sg56
g27
(g31
S'\xbc\xea\xac\x10B\xa8\xb6@'
p1695
tp1696
Rp1697
sg60
I00
sg61
g22
(S'\x07\xe1\n\x1e\t \x0b\x0c\\\xf3'
p1698
tp1699
Rp1700
sg65
g27
(g68
S'\x00x\x00\x00\x00\x00\x00\x00'
p1701
tp1702
Rp1703
sba(icoord
CoordRequest
p1704
(dp1705
g4
g5
sg6
g1259
sg8
g1260
sg20
Nsg21
g22
(S"\x07\xe1\n\x1e\t \x17\x0eR'"
p1706
tp1707
Rp1708
sg26
g27
(g31
S'=\x9e\xdb\xd4\xf0\x97x@'
p1709
tp1710
Rp1711
sg37
g38
sg39
I0
sg40
I00
sg41
I0
sg42
g27
(g31
S'a2U0*\xa9\x03@'
p1712
tp1713
Rp1714
sg46
Nsg47
I0
sg48
I00
sg49
g50
sg56
g27
(g31
S'OCg\xd7\x9eA(@'
p1715
tp1716
Rp1717
sg60
I00
sg61
g22
(S'\x07\xe1\n\x1e\t \x0b\x0c]\x82'
p1718
tp1719
Rp1720
sg65
g27
(g68
S'\x80\x00\x00\x00\x00\x00\x00\x00'
p1721
tp1722
Rp1723
sba(icoord
CoordRequest
p1724
(dp1725
g4
g5
sg6
g1259
sg8
g1260
sg20
Nsg21
g22
(S"\x07\xe1\n\x1e\n\x14'\x08X0"
p1726
tp1727
Rp1728
sg26
g27
(g31
S'D7\xeb\xf5\xcd\x8b\x95@'
p1729
tp1730
Rp1731
sg37
g38
sg39
I0
sg40
I00
sg41
I0
sg42
g27
(g31
S'\xfa~j\xbct\x93h@'
p1732
tp1733
Rp1734
sg46
Nsg47
I0
sg48
I00
sg49
g50
sg56
g27
(g31
S'2[\x06\xf5x\xb7\xa6@'
p1735
tp1736
Rp1737
sg60
I00
sg61
g22
(S'\x07\xe1\n\x1e\t \x0b\x0c^|'
p1738
tp1739
Rp1740
sg65
g27
(g68
S'\x00(\x00\x00\x00\x00\x00\x00'
p1741
tp1742
Rp1743
sba(icoord
CoordRequest
p1744
(dp1745
g4
g5
sg6
g1259
sg8
g1260
sg20
Nsg21
g22
(S'\x07\xe1\n\x1e\t"*\x02\x96\xc4'
p1746
tp1747
Rp1748
sg26
g27
(g31
S'$\x89_T\x1eV\x96@'
p1749
tp1750
Rp1751
sg37
g38
sg39
I0
sg40
I00
sg41
I0
sg42
g27
(g31
S'a2U0*\xa9#@'
p1752
tp1753
Rp1754
sg46
Nsg47
I0
sg48
I00
sg49
g50
sg56
g27
(g31
S"n\x98'\xf1{\xcbb@"
p1755
tp1756
Rp1757
sg60
I00
sg61
g22
(S'\x07\xe1\n\x1e\t \x0b\x0c_$'
p1758
tp1759
Rp1760
sg65
g27
(g68
S'\x00\x02\x00\x00\x00\x00\x00\x00'
p1761
tp1762
Rp1763
sba(icoord
CoordRequest
p1764
(dp1765
g4
g5
sg6
g1259
sg8
g1260
sg20
Nsg21
g22
(S'\x07\xe1\n\x1e\t \x17\tY4'
p1766
tp1767
Rp1768
sg26
g27
(g31
S'\xda\xaa\xf26j\xc3w@'
p1769
tp1770
Rp1771
sg37
g38
sg39
I0
sg40
I00
sg41
I0
sg42
g27
(g31
S'a2U0*\xa9\x03@'
p1772
tp1773
Rp1774
sg46
Nsg47
I0
sg48
I00
sg49
g50
sg56
g27
(g31
S"`P\xa7\xbc{\x9a'@"
p1775
tp1776
Rp1777
sg60
I00
sg61
g22
(S'\x07\xe1\n\x1e\t \x0b\x0c_\xb7'
p1778
tp1779
Rp1780
sg65
g27
(g68
S'\x80\x00\x00\x00\x00\x00\x00\x00'
p1781
tp1782
Rp1783
sba(icoord
CoordRequest
p1784
(dp1785
g4
g5
sg6
g1259
sg8
g1260
sg20
Nsg21
g22
(S'\x07\xe1\n\x1e\t"\x0b\x03"\x91'
p1786
tp1787
Rp1788
sg26
g27
(g31
S'\xc1\x08\xe7vIt5@'
p1789
tp1790
Rp1791
sg37
g38
sg39
I0
sg40
I00
sg41
I0
sg42
g27
(g31
S'\xfa~j\xbct\x93X@'
p1792
tp1793
Rp1794
sg46
Nsg47
I0
sg48
I00
sg49
g50
sg56
g27
(g31
S'|\x89\xdc\x8d=\xd9]@'
p1795
tp1796
Rp1797
sg60
I00
sg61
g22
(S'\x07\xe1\n\x1e\t \x0b\x0c`C'
p1798
tp1799
Rp1800
sg65
g27
(g68
S'\x00\x14\x00\x00\x00\x00\x00\x00'
p1801
tp1802
Rp1803
sba(icoord
CoordRequest
p1804
(dp1805
g4
g5
sg6
g1259
sg8
g1260
sg20
Nsg21
g22
(S"\x07\xe1\n\x1e\t'9\x05h\xf4"
p1806
tp1807
Rp1808
sg26
g27
(g31
S'\xea\xb2Og\xc0\x1b\xb2@'
p1809
tp1810
Rp1811
sg37
g38
sg39
I0
sg40
I00
sg41
I0
sg42
g27
(g31
S'a2U0*\xa9#@'
p1812
tp1813
Rp1814
sg46
Nsg47
I0
sg48
I00
sg49
g50
sg56
g27
(g31
S'\xe7els\xb1\x18}@'
p1815
tp1816
Rp1817
sg60
I00
sg61
g22
(S'\x07\xe1\n\x1e\t \x0b\x0c`\xd9'
p1818
tp1819
Rp1820
sg65
g27
(g68
S'\x00\x02\x00\x00\x00\x00\x00\x00'
p1821
tp1822
Rp1823
sba(icoord
CoordRequest
p1824
(dp1825
g4
g5
sg6
g1259
sg8
g1260
sg20
Nsg21
g22
(S'\x07\xe1\n\x1e\r:8\x0e\x86\x05'
p1826
tp1827
Rp1828
sg26
g27
(g31
S'\x0bL[\x1b\x17k\xa4@'
p1829
tp1830
Rp1831
sg37
g38
sg39
I0
sg40
I00
sg41
I0
sg42
g27
(g31
S';\xdfO\x8d\x97n\x82@'
p1832
tp1833
Rp1834
sg46
Nsg47
I0
sg48
I00
sg49
g50
sg56
g27
(g31
S'\xea\x03\xa5\xf9\x91B\xcf@'
p1835
tp1836
Rp1837
sg60
I00
sg61
g22
(S'\x07\xe1\n\x1e\t \x0b\x0cav'
p1838
tp1839
Rp1840
sg65
g27
(g68
S'\x00x\x00\x00\x00\x00\x00\x00'
p1841
tp1842
Rp1843
sbasg54
g55
sbsg20
Nsg21
g22
(S'\x07\xe1\n\x1e\x0b\x042\x02\x07\xfc'
p1844
tp1845
Rp1846
sg26
g27
(g31
S'\xab\xa2\x0eS\xf5R\x8a@'
p1847
tp1848
Rp1849
sg37
g38
sg39
I0
sg40
I00
sg41
I0
sg42
g27
(g31
S';\xdfO\x8d\x97n\x82@'
p1850
tp1851
Rp1852
sg46
Nsg47
I0
sg48
I00
sg49
g50
sg56
g27
(g31
S'\x84\x99\x8e\xbbR\xb6\xb5@'
p1853
tp1854
Rp1855
sg60
I00
sg61
g22
(S'\x07\xe1\n\x1e\t \x0b\x0c[\xd6'
p1856
tp1857
Rp1858
sg65
g27
(g68
S'\x00x\x00\x00\x00\x00\x00\x00'
p1859
tp1860
Rp1861
sba(icoord
CoordRequest
p1862
(dp1863
g4
g5
sg6
S'aofa-191'
p1864
sg8
(icoord
DTN
p1865
(dp1866
g11
Nsg12
g1864
sg13
S'192.168.120.191'
p1867
sg15
Nsg16
(lp1868
(icoord
CoordRequest
p1869
(dp1870
g4
g5
sg6
g1864
sg8
g1865
sg20
Nsg21
g22
(S'\x07\xe1\n\x1e\n\t+\x07\xb3\xea'
p1871
tp1872
Rp1873
sg26
g27
(g31
S'\xe4\x90\xb3\x7f_\xb4\xa1@'
p1874
tp1875
Rp1876
sg37
g38
sg39
I0
sg40
I00
sg41
I0
sg42
g27
(g31
S'\xfa~j\xbct\x93X@'
p1877
tp1878
Rp1879
sg46
Nsg47
I0
sg48
I00
sg49
g50
sg56
g27
(g31
S'\xe7\r\xbd\xab\x1c,\xa2@'
p1880
tp1881
Rp1882
sg60
I00
sg61
g22
(S'\x07\xe1\n\x1e\t\x1e9\x06\xd9,'
p1883
tp1884
Rp1885
sg65
g27
(g68
S'\x00\x14\x00\x00\x00\x00\x00\x00'
p1886
tp1887
Rp1888
sba(icoord
CoordRequest
p1889
(dp1890
g4
g5
sg6
g1864
sg8
g1865
sg20
Nsg21
g22
(S'\x07\xe1\n\x1e\n\x0b\x0b\x06\x19('
p1891
tp1892
Rp1893
sg26
g27
(g31
S'\n\xc4\x8c\xfa1\x9f\x91@'
p1894
tp1895
Rp1896
sg37
g38
sg39
I0
sg40
I00
sg41
I0
sg42
g27
(g31
S'\xfa~j\xbct\x93h@'
p1897
tp1898
Rp1899
sg46
Nsg47
I0
sg48
I00
sg49
g50
sg56
g27
(g31
S'\x1f\x05j\xbf\xe6\xdb\xa2@'
p1900
tp1901
Rp1902
sg60
I00
sg61
g22
(S'\x07\xe1\n\x1e\t\x1e9\x06\xd9\xd1'
p1903
tp1904
Rp1905
sg65
g27
(g68
S'\x00(\x00\x00\x00\x00\x00\x00'
p1906
tp1907
Rp1908
sba(icoord
CoordRequest
p1909
(dp1910
g4
g5
sg6
g1864
sg8
g1865
sg20
Nsg21
g22
(S'\x07\xe1\n\x1e\n(\x17\x01>F'
p1911
tp1912
Rp1913
sg26
g27
(g31
S'\x96bz\x19\x00\xf2\x82@'
p1914
tp1915
Rp1916
sg37
g38
sg39
I0
sg40
I00
sg41
I0
sg42
g27
(g31
S';\xdfO\x8d\x97n\x82@'
p1917
tp1918
Rp1919
sg46
Nsg47
I0
sg48
I00
sg49
g50
sg56
g27
(g31
S'\nV\x89\xdd\xa1E\xb0@'
p1920
tp1921
Rp1922
sg60
I00
sg61
g22
(S'\x07\xe1\n\x1e\t\x1e9\x06\xda\xa7'
p1923
tp1924
Rp1925
sg65
g27
(g68
S'\x00x\x00\x00\x00\x00\x00\x00'
p1926
tp1927
Rp1928
sba(icoord
CoordRequest
p1929
(dp1930
g4
g5
sg6
g1864
sg8
g1865
sg20
Nsg21
g22
(S'\x07\xe1\n\x1e\x0b\x07,\x0cs9'
p1931
tp1932
Rp1933
sg26
g27
(g31
S'\x82\x822\xbc\xbe4\x9d@'
p1934
tp1935
Rp1936
sg37
g38
sg39
I0
sg40
I00
sg41
I0
sg42
g27
(g31
S';\xdfO\x8d\x97nr@'
p1937
tp1938
Rp1939
sg46
Nsg47
I0
sg48
I00
sg49
g50
sg56
g27
(g31
S'H\xbdP\xd9]\xaf\xb6@'
p1940
tp1941
Rp1942
sg60
I00
sg61
g22
(S'\x07\xe1\n\x1e\t\x1e9\x06\xdb4'
p1943
tp1944
Rp1945
sg65
g27
(g68
S'\x00<\x00\x00\x00\x00\x00\x00'
p1946
tp1947
Rp1948
sba(icoord
CoordRequest
p1949
(dp1950
g4
g5
sg6
g1864
sg8
g1865
sg20
Nsg21
g22
(S'\x07\xe1\n\x1e\t \x19\x00q\xc0'
p1951
tp1952
Rp1953
sg26
g27
(g31
S' \x80\xc3\xecK\x90u@'
p1954
tp1955
Rp1956
sg37
g38
sg39
I0
sg40
I00
sg41
I0
sg42
g27
(g31
S'\xaeG\xe1z\x14\xae3@'
p1957
tp1958
Rp1959
sg46
Nsg47
I0
sg48
I00
sg49
g50
sg56
g27
(g31
S'\xeco\xb9\xf3\x18\xe5U@'
p1960
tp1961
Rp1962
sg60
I00
sg61
g22
(S'\x07\xe1\n\x1e\t\x1e9\x06\xdb\xc0'
p1963
tp1964
Rp1965
sg65
g27
(g68
S'\x01\x04\x00\x00\x00\x00\x00\x00'
p1966
tp1967
Rp1968
sba(icoord
CoordRequest
p1969
(dp1970
g4
g5
sg6
g1864
sg8
g1865
sg20
Nsg21
g22
(S'\x07\xe1\n\x1e\t \x12\x03S\xad'
p1971
tp1972
Rp1973
sg26
g27
(g31
S'P\xc0\xf5K\xf3\x8c\x86@'
p1974
tp1975
Rp1976
sg37
g38
sg39
I0
sg40
I00
sg41
I0
sg42
g27
(g31
S'a2U0*\xa9#@'
p1977
tp1978
Rp1979
sg46
Nsg47
I0
sg48
I00
sg49
g50
sg56
g27
(g31
S'\x97R\xee\xb2-1T@'
p1980
tp1981
Rp1982
sg60
I00
sg61
g22
(S'\x07\xe1\n\x1e\t\x1e9\x06\xdcO'
p1983
tp1984
Rp1985
sg65
g27
(g68
S'\x00\x02\x00\x00\x00\x00\x00\x00'
p1986
tp1987
Rp1988
sba(icoord
CoordRequest
p1989
(dp1990
g4
g5
sg6
g1864
sg8
g1865
sg20
Nsg21
g22
(S'\x07\xe1\n\x1e\t2(\x01\x1c\x9d'
p1991
tp1992
Rp1993
sg26
g27
(g31
S'Gb\xb2\x10\x1b<\x91@'
p1994
tp1995
Rp1996
sg37
g38
sg39
I0
sg40
I00
sg41
I0
sg42
g27
(g31
S'\xfa~j\xbct\x93X@'
p1997
tp1998
Rp1999
sg46
Nsg47
I0
sg48
I00
sg49
g50
sg56
g27
(g31
S'U\x84\x9c\x0e~z\x92@'
p2000
tp2001
Rp2002
sg60
I00
sg61
g22
(S'\x07\xe1\n\x1e\t\x1e9\x06\xdc\xde'
p2003
tp2004
Rp2005
sg65
g27
(g68
S'\x00\x14\x00\x00\x00\x00\x00\x00'
p2006
tp2007
Rp2008
sba(icoord
CoordRequest
p2009
(dp2010
g4
g5
sg6
g1864
sg8
g1865
sg20
Nsg21
g22
(S'\x07\xe1\n\x1e\x0b\x18\x07\x06b\r'
p2011
tp2012
Rp2013
sg26
g27
(g31
S'\xb7\xaf(\xf5\xbdl\x90@'
p2014
tp2015
Rp2016
sg37
g38
sg39
I0
sg40
I00
sg41
I0
sg42
g27
(g31
S';\xdfO\x8d\x97n\x82@'
p2017
tp2018
Rp2019
sg46
Nsg47
I0
sg48
I00
sg49
g50
sg56
g27
(g31
S'\xc8#\xce\xe8\xf7\x85\xba@'
p2020
tp2021
Rp2022
sg60
I00
sg61
g22
(S'\x07\xe1\n\x1e\t\x1e9\x06\xdd\x81'
p2023
tp2024
Rp2025
sg65
g27
(g68
S'\x00x\x00\x00\x00\x00\x00\x00'
p2026
tp2027
Rp2028
sba(icoord
CoordRequest
p2029
(dp2030
g4
g5
sg6
g1864
sg8
g1865
sg20
Nsg21
g22
(S'\x07\xe1\n\x1e\t*(\n8\xfa'
p2031
tp2032
Rp2033
sg26
g27
(g31
S',\xdfF\x84lNa@'
p2034
tp2035
Rp2036
sg37
g38
sg39
I0
sg40
I00
sg41
I0
sg42
g27
(g31
S';\xdfO\x8d\x97nr@'
p2037
tp2038
Rp2039
sg46
Nsg47
I0
sg48
I00
sg49
g50
sg56
g27
(g31
S'\xb6\xe7\x1cI\xc2\xf9\x85@'
p2040
tp2041
Rp2042
sg60
I00
sg61
g22
(S'\x07\xe1\n\x1e\t\x1e9\x06\xde '
p2043
tp2044
Rp2045
sg65
g27
(g68
S'\x00<\x00\x00\x00\x00\x00\x00'
p2046
tp2047
Rp2048
sba(icoord
CoordRequest
p2049
(dp2050
g4
g5
sg6
g1864
sg8
g1865
sg20
Nsg21
g22
(S'\x07\xe1\n\x1e\t"\x03\x0ce\x86'
p2051
tp2052
Rp2053
sg26
g27
(g31
S'\xe0c\xa3\xd7\xb2w\x8a@'
p2054
tp2055
Rp2056
sg37
g38
sg39
I0
sg40
I00
sg41
I0
sg42
g27
(g31
S'\xaeG\xe1z\x14\xae3@'
p2057
tp2058
Rp2059
sg46
Nsg47
I0
sg48
I00
sg49
g50
sg56
g27
(g31
S'#\xedQ\x06\x97Kg@'
p2060
tp2061
Rp2062
sg60
I00
sg61
g22
(S'\x07\xe1\n\x1e\t\x1e9\x06\xde\xbc'
p2063
tp2064
Rp2065
sg65
g27
(g68
S'\x01\x04\x00\x00\x00\x00\x00\x00'
p2066
tp2067
Rp2068
sba(icoord
CoordRequest
p2069
(dp2070
g4
g5
sg6
g1864
sg8
g1865
sg20
Nsg21
g22
(S"\x07\xe1\n\x1e\n\n'\n\xa1\xe9"
p2071
tp2072
Rp2073
sg26
g27
(g31
S'\xe4\x90\xb3\x7f_\xb4\xa1@'
p2074
tp2075
Rp2076
sg37
g38
sg39
I0
sg40
I00
sg41
I0
sg42
g27
(g31
S'\xfa~j\xbct\x93X@'
p2077
tp2078
Rp2079
sg46
Nsg47
I0
sg48
I00
sg49
g50
sg56
g27
(g31
S'\xe7\r\xbd\xab\x1c,\xa2@'
p2080
tp2081
Rp2082
sg60
I00
sg61
g22
(S'\x07\xe1\n\x1e\t\x1f5\t\xc7+'
p2083
tp2084
Rp2085
sg65
g27
(g68
S'\x00\x14\x00\x00\x00\x00\x00\x00'
p2086
tp2087
Rp2088
sba(icoord
CoordRequest
p2089
(dp2090
g4
g5
sg6
g1864
sg8
g1865
sg20
Nsg21
g22
(S'\x07\xe1\n\x1e\n\x0c\x07\t\x07"'
p2091
tp2092
Rp2093
sg26
g27
(g31
S'\n\xc4\x8c\xfa1\x9f\x91@'
p2094
tp2095
Rp2096
sg37
g38
sg39
I0
sg40
I00
sg41
I0
sg42
g27
(g31
S'\xfa~j\xbct\x93h@'
p2097
tp2098
Rp2099
sg46
Nsg47
I0
sg48
I00
sg49
g50
sg56
g27
(g31
S'\x1f\x05j\xbf\xe6\xdb\xa2@'
p2100
tp2101
Rp2102
sg60
I00
sg61
g22
(S'\x07\xe1\n\x1e\t\x1f5\t\xc7\xcb'
p2103
tp2104
Rp2105
sg65
g27
(g68
S'\x00(\x00\x00\x00\x00\x00\x00'
p2106
tp2107
Rp2108
sba(icoord
CoordRequest
p2109
(dp2110
g4
g5
sg6
g1864
sg8
g1865
sg20
Nsg21
g22
(S'\x07\xe1\n\x1e\n)\x13\x04+\xf9'
p2111
tp2112
Rp2113
sg26
g27
(g31
S'\x96bz\x19\x00\xf2\x82@'
p2114
tp2115
Rp2116
sg37
g38
sg39
I0
sg40
I00
sg41
I0
sg42
g27
(g31
S';\xdfO\x8d\x97n\x82@'
p2117
tp2118
Rp2119
sg46
Nsg47
I0
sg48
I00
sg49
g50
sg56
g27
(g31
S'\nV\x89\xdd\xa1E\xb0@'
p2120
tp2121
Rp2122
sg60
I00
sg61
g22
(S'\x07\xe1\n\x1e\t\x1f5\t\xc8Z'
p2123
tp2124
Rp2125
sg65
g27
(g68
S'\x00x\x00\x00\x00\x00\x00\x00'
p2126
tp2127
Rp2128
sba(icoord
CoordRequest
p2129
(dp2130
g4
g5
sg6
g1864
sg8
g1865
sg20
Nsg21
g22
(S'\x07\xe1\n\x1e\x0b\x08)\x00\x1e\xad'
p2131
tp2132
Rp2133
sg26
g27
(g31
S'\x82\x822\xbc\xbe4\x9d@'
p2134
tp2135
Rp2136
sg37
g38
sg39
I0
sg40
I00
sg41
I0
sg42
g27
(g31
S';\xdfO\x8d\x97nr@'
p2137
tp2138
Rp2139
sg46
Nsg47
I0
sg48
I00
sg49
g50
sg56
g27
(g31
S'H\xbdP\xd9]\xaf\xb6@'
p2140
tp2141
Rp2142
sg60
I00
sg61
g22
(S'\x07\xe1\n\x1e\t\x1f5\t\xc8\xe8'
p2143
tp2144
Rp2145
sg65
g27
(g68
S'\x00<\x00\x00\x00\x00\x00\x00'
p2146
tp2147
Rp2148
sba(icoord
CoordRequest
p2149
(dp2150
g4
g5
sg6
g1864
sg8
g1865
sg20
Nsg21
g22
(S'\x07\xe1\n\x1e\t!\x15\x03_\x80'
p2151
tp2152
Rp2153
sg26
g27
(g31
S' \x80\xc3\xecK\x90u@'
p2154
tp2155
Rp2156
sg37
g38
sg39
I0
sg40
I00
sg41
I0
sg42
g27
(g31
S'\xaeG\xe1z\x14\xae3@'
p2157
tp2158
Rp2159
sg46
Nsg47
I0
sg48
I00
sg49
g50
sg56
g27
(g31
S'\xeco\xb9\xf3\x18\xe5U@'
p2160
tp2161
Rp2162
sg60
I00
sg61
g22
(S'\x07\xe1\n\x1e\t\x1f5\t\xc9\x80'
p2163
tp2164
Rp2165
sg65
g27
(g68
S'\x01\x04\x00\x00\x00\x00\x00\x00'
p2166
tp2167
Rp2168
sba(icoord
CoordRequest
p2169
(dp2170
g4
g5
sg6
g1864
sg8
g1865
sg20
Nsg21
g22
(S'\x07\xe1\n\x1e\t!\x0e\x06A\x82'
p2171
tp2172
Rp2173
sg26
g27
(g31
S'P\xc0\xf5K\xf3\x8c\x86@'
p2174
tp2175
Rp2176
sg37
g38
sg39
I0
sg40
I00
sg41
I0
sg42
g27
(g31
S'a2U0*\xa9#@'
p2177
tp2178
Rp2179
sg46
Nsg47
I0
sg48
I00
sg49
g50
sg56
g27
(g31
S'\x97R\xee\xb2-1T@'
p2180
tp2181
Rp2182
sg60
I00
sg61
g22
(S'\x07\xe1\n\x1e\t\x1f5\t\xca$'
p2183
tp2184
Rp2185
sg65
g27
(g68
S'\x00\x02\x00\x00\x00\x00\x00\x00'
p2186
tp2187
Rp2188
sba(icoord
CoordRequest
p2189
(dp2190
g4
g5
sg6
g1864
sg8
g1865
sg20
Nsg21
g22
(S'\x07\xe1\n\x1e\t3$\x04\n\x87'
p2191
tp2192
Rp2193
sg26
g27
(g31
S'Gb\xb2\x10\x1b<\x91@'
p2194
tp2195
Rp2196
sg37
g38
sg39
I0
sg40
I00
sg41
I0
sg42
g27
(g31
S'\xfa~j\xbct\x93X@'
p2197
tp2198
Rp2199
sg46
Nsg47
I0
sg48
I00
sg49
g50
sg56
g27
(g31
S'U\x84\x9c\x0e~z\x92@'
p2200
tp2201
Rp2202
sg60
I00
sg61
g22
(S'\x07\xe1\n\x1e\t\x1f5\t\xca\xc8'
p2203
tp2204
Rp2205
sg65
g27
(g68
S'\x00\x14\x00\x00\x00\x00\x00\x00'
p2206
tp2207
Rp2208
sba(icoord
CoordRequest
p2209
(dp2210
g4
g5
sg6
g1864
sg8
g1865
sg20
Nsg21
g22
(S'\x07\xe1\n\x1e\x0b\x19\x03\tP\x87'
p2211
tp2212
Rp2213
sg26
g27
(g31
S'\xb7\xaf(\xf5\xbdl\x90@'
p2214
tp2215
Rp2216
sg37
g38
sg39
I0
sg40
I00
sg41
I0
sg42
g27
(g31
S';\xdfO\x8d\x97n\x82@'
p2217
tp2218
Rp2219
sg46
Nsg47
I0
sg48
I00
sg49
g50
sg56
g27
(g31
S'\xc8#\xce\xe8\xf7\x85\xba@'
p2220
tp2221
Rp2222
sg60
I00
sg61
g22
(S'\x07\xe1\n\x1e\t\x1f5\t\xcb\xfb'
p2223
tp2224
Rp2225
sg65
g27
(g68
S'\x00x\x00\x00\x00\x00\x00\x00'
p2226
tp2227
Rp2228
sba(icoord
CoordRequest
p2229
(dp2230
g4
g5
sg6
g1864
sg8
g1865
sg20
Nsg21
g22
(S"\x07\xe1\n\x1e\t+$\r'\x9c"
p2231
tp2232
Rp2233
sg26
g27
(g31
S',\xdfF\x84lNa@'
p2234
tp2235
Rp2236
sg37
g38
sg39
I0
sg40
I00
sg41
I0
sg42
g27
(g31
S';\xdfO\x8d\x97nr@'
p2237
tp2238
Rp2239
sg46
Nsg47
I0
sg48
I00
sg49
g50
sg56
g27
(g31
S'\xb6\xe7\x1cI\xc2\xf9\x85@'
p2240
tp2241
Rp2242
sg60
I00
sg61
g22
(S'\x07\xe1\n\x1e\t\x1f5\t\xcc\xc2'
p2243
tp2244
Rp2245
sg65
g27
(g68
S'\x00<\x00\x00\x00\x00\x00\x00'
p2246
tp2247
Rp2248
sba(icoord
CoordRequest
p2249
(dp2250
g4
g5
sg6
g1864
sg8
g1865
sg20
Nsg21
g22
(S'\x07\xe1\n\x1e\t#\x00\x00\x11\xe2'
p2251
tp2252
Rp2253
sg26
g27
(g31
S'\xe0c\xa3\xd7\xb2w\x8a@'
p2254
tp2255
Rp2256
sg37
g38
sg39
I0
sg40
I00
sg41
I0
sg42
g27
(g31
S'\xaeG\xe1z\x14\xae3@'
p2257
tp2258
Rp2259
sg46
Nsg47
I0
sg48
I00
sg49
g50
sg56
g27
(g31
S'#\xedQ\x06\x97Kg@'
p2260
tp2261
Rp2262
sg60
I00
sg61
g22
(S'\x07\xe1\n\x1e\t\x1f5\t\xcdX'
p2263
tp2264
Rp2265
sg65
g27
(g68
S'\x01\x04\x00\x00\x00\x00\x00\x00'
p2266
tp2267
Rp2268
sbag1862
a(icoord
CoordRequest
p2269
(dp2270
g4
g5
sg6
g1864
sg8
g1865
sg20
Nsg21
g22
(S'\x07\xe1\n\x1e\n\x0c\x19\x0b\x9b\xd8'
p2271
tp2272
Rp2273
sg26
g27
(g31
S'\n\xc4\x8c\xfa1\x9f\x91@'
p2274
tp2275
Rp2276
sg37
g38
sg39
I0
sg40
I00
sg41
I0
sg42
g27
(g31
S'\xfa~j\xbct\x93h@'
p2277
tp2278
Rp2279
sg46
Nsg47
I0
sg48
I00
sg49
g50
sg56
g27
(g31
S'\x1f\x05j\xbf\xe6\xdb\xa2@'
p2280
tp2281
Rp2282
sg60
I00
sg61
g22
(S'\x07\xe1\n\x1e\t \x0b\x0c\\\x81'
p2283
tp2284
Rp2285
sg65
g27
(g68
S'\x00(\x00\x00\x00\x00\x00\x00'
p2286
tp2287
Rp2288
sba(icoord
CoordRequest
p2289
(dp2290
g4
g5
sg6
g1864
sg8
g1865
sg20
Nsg21
g22
(S'\x07\xe1\n\x1e\n)%\x06\xc0\xa9'
p2291
tp2292
Rp2293
sg26
g27
(g31
S'\x96bz\x19\x00\xf2\x82@'
p2294
tp2295
Rp2296
sg37
g38
sg39
I0
sg40
I00
sg41
I0
sg42
g27
(g31
S';\xdfO\x8d\x97n\x82@'
p2297
tp2298
Rp2299
sg46
Nsg47
I0
sg48
I00
sg49
g50
sg56
g27
(g31
S'\nV\x89\xdd\xa1E\xb0@'
p2300
tp2301
Rp2302
sg60
I00
sg61
g22
(S'\x07\xe1\n\x1e\t \x0b\x0c]\n'
p2303
tp2304
Rp2305
sg65
g27
(g68
S'\x00x\x00\x00\x00\x00\x00\x00'
p2306
tp2307
Rp2308
sba(icoord
CoordRequest
p2309
(dp2310
g4
g5
sg6
g1864
sg8
g1865
sg20
Nsg21
g22
(S'\x07\xe1\n\x1e\x0b\x08;\x02\xb3\\'
p2311
tp2312
Rp2313
sg26
g27
(g31
S'\x82\x822\xbc\xbe4\x9d@'
p2314
tp2315
Rp2316
sg37
g38
sg39
I0
sg40
I00
sg41
I0
sg42
g27
(g31
S';\xdfO\x8d\x97nr@'
p2317
tp2318
Rp2319
sg46
Nsg47
I0
sg48
I00
sg49
g50
sg56
g27
(g31
S'H\xbdP\xd9]\xaf\xb6@'
p2320
tp2321
Rp2322
sg60
I00
sg61
g22
(S'\x07\xe1\n\x1e\t \x0b\x0c]\x97'
p2323
tp2324
Rp2325
sg65
g27
(g68
S'\x00<\x00\x00\x00\x00\x00\x00'
p2326
tp2327
Rp2328
sba(icoord
CoordRequest
p2329
(dp2330
g4
g5
sg6
g1864
sg8
g1865
sg20
Nsg21
g22
(S"\x07\xe1\n\x1e\t!'\x05\xf4\x9c"
p2331
tp2332
Rp2333
sg26
g27
(g31
S' \x80\xc3\xecK\x90u@'
p2334
tp2335
Rp2336
sg37
g38
sg39
I0
sg40
I00
sg41
I0
sg42
g27
(g31
S'\xaeG\xe1z\x14\xae3@'
p2337
tp2338
Rp2339
sg46
Nsg47
I0
sg48
I00
sg49
g50
sg56
g27
(g31
S'\xeco\xb9\xf3\x18\xe5U@'
p2340
tp2341
Rp2342
sg60
I00
sg61
g22
(S'\x07\xe1\n\x1e\t \x0b\x0c^\x9c'
p2343
tp2344
Rp2345
sg65
g27
(g68
S'\x01\x04\x00\x00\x00\x00\x00\x00'
p2346
tp2347
Rp2348
sba(icoord
CoordRequest
p2349
(dp2350
g4
g5
sg6
g1864
sg8
g1865
sg20
Nsg21
g22
(S'\x07\xe1\n\x1e\t! \x08\xd6\x9b'
p2351
tp2352
Rp2353
sg26
g27
(g31
S'P\xc0\xf5K\xf3\x8c\x86@'
p2354
tp2355
Rp2356
sg37
g38
sg39
I0
sg40
I00
sg41
I0
sg42
g27
(g31
S'a2U0*\xa9#@'
p2357
tp2358
Rp2359
sg46
Nsg47
I0
sg48
I00
sg49
g50
sg56
g27
(g31
S'\x97R\xee\xb2-1T@'
p2360
tp2361
Rp2362
sg60
I00
sg61
g22
(S'\x07\xe1\n\x1e\t \x0b\x0c_='
p2363
tp2364
Rp2365
sg65
g27
(g68
S'\x00\x02\x00\x00\x00\x00\x00\x00'
p2366
tp2367
Rp2368
sba(icoord
CoordRequest
p2369
(dp2370
g4
g5
sg6
g1864
sg8
g1865
sg20
Nsg21
g22
(S'\x07\xe1\n\x1e\t36\x06\x9f\x8d'
p2371
tp2372
Rp2373
sg26
g27
(g31
S'Gb\xb2\x10\x1b<\x91@'
p2374
tp2375
Rp2376
sg37
g38
sg39
I0
sg40
I00
sg41
I0
sg42
g27
(g31
S'\xfa~j\xbct\x93X@'
p2377
tp2378
Rp2379
sg46
Nsg47
I0
sg48
I00
sg49
g50
sg56
g27
(g31
S'U\x84\x9c\x0e~z\x92@'
p2380
tp2381
Rp2382
sg60
I00
sg61
g22
(S'\x07\xe1\n\x1e\t \x0b\x0c_\xce'
p2383
tp2384
Rp2385
sg65
g27
(g68
S'\x00\x14\x00\x00\x00\x00\x00\x00'
p2386
tp2387
Rp2388
sba(icoord
CoordRequest
p2389
(dp2390
g4
g5
sg6
g1864
sg8
g1865
sg20
Nsg21
g22
(S'\x07\xe1\n\x1e\x0b\x19\x15\x0b\xe4\xe6'
p2391
tp2392
Rp2393
sg26
g27
(g31
S'\xb7\xaf(\xf5\xbdl\x90@'
p2394
tp2395
Rp2396
sg37
g38
sg39
I0
sg40
I00
sg41
I0
sg42
g27
(g31
S';\xdfO\x8d\x97n\x82@'
p2397
tp2398
Rp2399
sg46
Nsg47
I0
sg48
I00
sg49
g50
sg56
g27
(g31
S'\xc8#\xce\xe8\xf7\x85\xba@'
p2400
tp2401
Rp2402
sg60
I00
sg61
g22
(S'\x07\xe1\n\x1e\t \x0b\x0c`Z'
p2403
tp2404
Rp2405
sg65
g27
(g68
S'\x00x\x00\x00\x00\x00\x00\x00'
p2406
tp2407
Rp2408
sba(icoord
CoordRequest
p2409
(dp2410
g4
g5
sg6
g1864
sg8
g1865
sg20
Nsg21
g22
(S'\x07\xe1\n\x1e\t+7\x00y\x8d'
p2411
tp2412
Rp2413
sg26
g27
(g31
S',\xdfF\x84lNa@'
p2414
tp2415
Rp2416
sg37
g38
sg39
I0
sg40
I00
sg41
I0
sg42
g27
(g31
S';\xdfO\x8d\x97nr@'
p2417
tp2418
Rp2419
sg46
Nsg47
I0
sg48
I00
sg49
g50
sg56
g27
(g31
S'\xb6\xe7\x1cI\xc2\xf9\x85@'
p2420
tp2421
Rp2422
sg60
I00
sg61
g22
(S'\x07\xe1\n\x1e\t \x0b\x0c`\xf3'
p2423
tp2424
Rp2425
sg65
g27
(g68
S'\x00<\x00\x00\x00\x00\x00\x00'
p2426
tp2427
Rp2428
sba(icoord
CoordRequest
p2429
(dp2430
g4
g5
sg6
g1864
sg8
g1865
sg20
Nsg21
g22
(S'\x07\xe1\n\x1e\t#\x12\x02\xa6\x18'
p2431
tp2432
Rp2433
sg26
g27
(g31
S'\xe0c\xa3\xd7\xb2w\x8a@'
p2434
tp2435
Rp2436
sg37
g38
sg39
I0
sg40
I00
sg41
I0
sg42
g27
(g31
S'\xaeG\xe1z\x14\xae3@'
p2437
tp2438
Rp2439
sg46
Nsg47
I0
sg48
I00
sg49
g50
sg56
g27
(g31
S'#\xedQ\x06\x97Kg@'
p2440
tp2441
Rp2442
sg60
I00
sg61
g22
(S'\x07\xe1\n\x1e\t \x0b\x0ca\x8e'
p2443
tp2444
Rp2445
sg65
g27
(g68
S'\x01\x04\x00\x00\x00\x00\x00\x00'
p2446
tp2447
Rp2448
sbasg54
g55
sbsg20
Nsg21
g22
(S'\x07\xe1\n\x1e\n\n9\r6\xb0'
p2449
tp2450
Rp2451
sg26
g27
(g31
S'\xe4\x90\xb3\x7f_\xb4\xa1@'
p2452
tp2453
Rp2454
sg37
g38
sg39
I0
sg40
I00
sg41
I0
sg42
g27
(g31
S'\xfa~j\xbct\x93X@'
p2455
tp2456
Rp2457
sg46
Nsg47
I0
sg48
I00
sg49
g50
sg56
g27
(g31
S'\xe7\r\xbd\xab\x1c,\xa2@'
p2458
tp2459
Rp2460
sg60
I00
sg61
g22
(S'\x07\xe1\n\x1e\t \x0b\x0c[\xf2'
p2461
tp2462
Rp2463
sg65
g27
(g68
S'\x00\x14\x00\x00\x00\x00\x00\x00'
p2464
tp2465
Rp2466
sba(icoord
CoordRequest
p2467
(dp2468
g4
g5
sg6
S'denv-201'
p2469
sg8
(icoord
DTN
p2470
(dp2471
g11
Nsg12
g2469
sg13
S'192.168.120.201'
p2472
sg15
Nsg16
(lp2473
(icoord
CoordRequest
p2474
(dp2475
g4
g5
sg6
g2469
sg8
g2470
sg20
Nsg21
g22
(S'\x07\xe1\n\x1e\t%6\n\x7f\xbd'
p2476
tp2477
Rp2478
sg26
g27
(g31
S'\x00\x11.YW\xbdD@'
p2479
tp2480
Rp2481
sg37
g38
sg39
I0
sg40
I00
sg41
I0
sg42
g27
(g31
S';\xdfO\x8d\x97nr@'
p2482
tp2483
Rp2484
sg46
Nsg47
I0
sg48
I00
sg49
g50
sg56
g27
(g31
S'\xdb\xcb\xc4\xd9\xd3\x13z@'
p2485
tp2486
Rp2487
sg60
I00
sg61
g22
(S'\x07\xe1\n\x1e\t\x1e9\x06\xd9H'
p2488
tp2489
Rp2490
sg65
g27
(g68
S'\x00<\x00\x00\x00\x00\x00\x00'
p2491
tp2492
Rp2493
sba(icoord
CoordRequest
p2494
(dp2495
g4
g5
sg6
g2469
sg8
g2470
sg20
Nsg21
g22
(S'\x07\xe1\n\x1e\n6\x15\x0bi\xb4'
p2496
tp2497
Rp2498
sg26
g27
(g31
S'\x03e\x1d\xda\xa2\x1a\xa3@'
p2499
tp2500
Rp2501
sg37
g38
sg39
I0
sg40
I00
sg41
I0
sg42
g27
(g31
S'\xfa~j\xbct\x93h@'
p2502
tp2503
Rp2504
sg46
Nsg47
I0
sg48
I00
sg49
g50
sg56
g27
(g31
S'\x87\x9e\x19\x88L\x8c\xb3@'
p2505
tp2506
Rp2507
sg60
I00
sg61
g22
(S'\x07\xe1\n\x1e\t\x1e9\x06\xd9\xec'
p2508
tp2509
Rp2510
sg65
g27
(g68
S'\x00(\x00\x00\x00\x00\x00\x00'
p2511
tp2512
Rp2513
sba(icoord
CoordRequest
p2514
(dp2515
g4
g5
sg6
g2469
sg8
g2470
sg20
Nsg21
g22
(S'\x07\xe1\n\x1e\t9\x19\tJ='
p2516
tp2517
Rp2518
sg26
g27
(g31
S'\x9b\x9e\xda\xee<\xae\x97@'
p2519
tp2520
Rp2521
sg37
g38
sg39
I0
sg40
I00
sg41
I0
sg42
g27
(g31
S'\xfa~j\xbct\x93X@'
p2522
tp2523
Rp2524
sg46
Nsg47
I0
sg48
I00
sg49
g50
sg56
g27
(g31
S'\x8cwLr\xa3\xd0\x98@'
p2525
tp2526
Rp2527
sg60
I00
sg61
g22
(S'\x07\xe1\n\x1e\t\x1e9\x06\xda\xbd'
p2528
tp2529
Rp2530
sg65
g27
(g68
S'\x00\x14\x00\x00\x00\x00\x00\x00'
p2531
tp2532
Rp2533
sba(icoord
CoordRequest
p2534
(dp2535
g4
g5
sg6
g2469
sg8
g2470
sg20
Nsg21
g22
(S'\x07\xe1\n\x1e\t\x1f\x10\x0c\x10\x82'
p2536
tp2537
Rp2538
sg26
g27
(g31
S'M\x0e\x86\xc7\xfe/X@'
p2539
tp2540
Rp2541
sg37
g38
sg39
I0
sg40
I00
sg41
I0
sg42
g27
(g31
S'a2U0*\xa9#@'
p2542
tp2543
Rp2544
sg46
Nsg47
I0
sg48
I00
sg49
g50
sg56
g27
(g31
S'g\xd5F\xbe_W3@'
p2545
tp2546
Rp2547
sg60
I00
sg61
g22
(S'\x07\xe1\n\x1e\t\x1e9\x06\xdbI'
p2548
tp2549
Rp2550
sg65
g27
(g68
S'\x00\x02\x00\x00\x00\x00\x00\x00'
p2551
tp2552
Rp2553
sba(icoord
CoordRequest
p2554
(dp2555
g4
g5
sg6
g2469
sg8
g2470
sg20
Nsg21
g22
(S'\x07\xe1\n\x1e\x0b\x19\x00\r{\x03'
p2556
tp2557
Rp2558
sg26
g27
(g31
S' \xc6\x8c,\x00\x91\x90@'
p2559
tp2560
Rp2561
sg37
g38
sg39
I0
sg40
I00
sg41
I0
sg42
g27
(g31
S';\xdfO\x8d\x97n\x82@'
p2562
tp2563
Rp2564
sg46
Nsg47
I0
sg48
I00
sg49
g50
sg56
g27
(g31
S'yv(\x18o\xbb\xba@'
p2565
tp2566
Rp2567
sg60
I00
sg61
g22
(S'\x07\xe1\n\x1e\t\x1e9\x06\xdb\xd9'
p2568
tp2569
Rp2570
sg65
g27
(g68
S'\x00x\x00\x00\x00\x00\x00\x00'
p2571
tp2572
Rp2573
sba(icoord
CoordRequest
p2574
(dp2575
g4
g5
sg6
g2469
sg8
g2470
sg20
Nsg21
g22
(S'\x07\xe1\n\x1e\n!3\x07`Q'
p2576
tp2577
Rp2578
sg26
g27
(g31
S'W\x12nd\xdcn\x92@'
p2579
tp2580
Rp2581
sg37
g38
sg39
I0
sg40
I00
sg41
I0
sg42
g27
(g31
S';\xdfO\x8d\x97nr@'
p2582
tp2583
Rp2584
sg46
Nsg47
I0
sg48
I00
sg49
g50
sg56
g27
(g31
S'&\xb4GJ\x11|\xad@'
p2585
tp2586
Rp2587
sg60
I00
sg61
g22
(S'\x07\xe1\n\x1e\t\x1e9\x06\xdcg'
p2588
tp2589
Rp2590
sg65
g27
(g68
S'\x00<\x00\x00\x00\x00\x00\x00'
p2591
tp2592
Rp2593
sba(icoord
CoordRequest
p2594
(dp2595
g4
g5
sg6
g2469
sg8
g2470
sg20
Nsg21
g22
(S'\x07\xe1\n\x1e\n\x0e\x03\x03!\xb5'
p2596
tp2597
Rp2598
sg26
g27
(g31
S'\xb8\x01\xb3\x82OF\x88@'
p2599
tp2600
Rp2601
sg37
g38
sg39
I0
sg40
I00
sg41
I0
sg42
g27
(g31
S';\xdfO\x8d\x97nr@'
p2602
tp2603
Rp2604
sg46
Nsg47
I0
sg48
I00
sg49
g50
sg56
g27
(g31
S'T\x93\x05\xcb\x823\xa4@'
p2605
tp2606
Rp2607
sg60
I00
sg61
g22
(S'\x07\xe1\n\x1e\t\x1e9\x06\xdc\xf6'
p2608
tp2609
Rp2610
sg65
g27
(g68
S'\x00<\x00\x00\x00\x00\x00\x00'
p2611
tp2612
Rp2613
sba(icoord
CoordRequest
p2614
(dp2615
g4
g5
sg6
g2469
sg8
g2470
sg20
Nsg21
g22
(S'\x07\xe1\n\x1e\t!#\x0bh?'
p2616
tp2617
Rp2618
sg26
g27
(g31
S'?\x9a\x97\xfc\xdc\x02\x86@'
p2619
tp2620
Rp2621
sg37
g38
sg39
I0
sg40
I00
sg41
I0
sg42
g27
(g31
S'\xaeG\xe1z\x14\xae3@'
p2622
tp2623
Rp2624
sg46
Nsg47
I0
sg48
I00
sg49
g50
sg56
g27
(g31
S'\x83\xe3\xc1:\x86\xc9c@'
p2625
tp2626
Rp2627
sg60
I00
sg61
g22
(S'\x07\xe1\n\x1e\t\x1e9\x06\xdd\x9c'
p2628
tp2629
Rp2630
sg65
g27
(g68
S'\x01\x04\x00\x00\x00\x00\x00\x00'
p2631
tp2632
Rp2633
sba(icoord
CoordRequest
p2634
(dp2635
g4
g5
sg6
g2469
sg8
g2470
sg20
Nsg21
g22
(S'\x07\xe1\n\x1e\t&\x10\x0e\x8e\xa9'
p2636
tp2637
Rp2638
sg26
g27
(g31
S'7\x00\xf3\xaa\xc4\xe2^@'
p2639
tp2640
Rp2641
sg37
g38
sg39
I0
sg40
I00
sg41
I0
sg42
g27
(g31
S'\xfa~j\xbct\x93h@'
p2642
tp2643
Rp2644
sg46
Nsg47
I0
sg48
I00
sg49
g50
sg56
g27
(g31
S'\x8d\x8a\x8e\x0e\x10x{@'
p2645
tp2646
Rp2647
sg60
I00
sg61
g22
(S'\x07\xe1\n\x1e\t\x1e9\x06\xde9'
p2648
tp2649
Rp2650
sg65
g27
(g68
S'\x00(\x00\x00\x00\x00\x00\x00'
p2651
tp2652
Rp2653
sba(icoord
CoordRequest
p2654
(dp2655
g4
g5
sg6
g2469
sg8
g2470
sg20
Nsg21
g22
(S'\x07\xe1\n\x1e\t \x0b\tMV'
p2656
tp2657
Rp2658
sg26
g27
(g31
S'\x92\xc9a\xae\x1as\x84@'
p2659
tp2660
Rp2661
sg37
g38
sg39
I0
sg40
I00
sg41
I0
sg42
g27
(g31
S'a2U0*\xa9#@'
p2662
tp2663
Rp2664
sg46
Nsg47
I0
sg48
I00
sg49
g50
sg56
g27
(g31
S'}\x105\xf72\x8aR@'
p2665
tp2666
Rp2667
sg60
I00
sg61
g22
(S'\x07\xe1\n\x1e\t\x1e9\x06\xde\xd5'
p2668
tp2669
Rp2670
sg65
g27
(g68
S'\x00\x02\x00\x00\x00\x00\x00\x00'
p2671
tp2672
Rp2673
sba(icoord
CoordRequest
p2674
(dp2675
g4
g5
sg6
g2469
sg8
g2470
sg20
Nsg21
g22
(S'\x07\xe1\n\x1e\t&2\rm\xc2'
p2676
tp2677
Rp2678
sg26
g27
(g31
S'\x00\x11.YW\xbdD@'
p2679
tp2680
Rp2681
sg37
g38
sg39
I0
sg40
I00
sg41
I0
sg42
g27
(g31
S';\xdfO\x8d\x97nr@'
p2682
tp2683
Rp2684
sg46
Nsg47
I0
sg48
I00
sg49
g50
sg56
g27
(g31
S'\xdb\xcb\xc4\xd9\xd3\x13z@'
p2685
tp2686
Rp2687
sg60
I00
sg61
g22
(S'\x07\xe1\n\x1e\t\x1f5\t\xc7M'
p2688
tp2689
Rp2690
sg65
g27
(g68
S'\x00<\x00\x00\x00\x00\x00\x00'
p2691
tp2692
Rp2693
sba(icoord
CoordRequest
p2694
(dp2695
g4
g5
sg6
g2469
sg8
g2470
sg20
Nsg21
g22
(S'\x07\xe1\n\x1e\n7\x11\x0eW\xab'
p2696
tp2697
Rp2698
sg26
g27
(g31
S'\x03e\x1d\xda\xa2\x1a\xa3@'
p2699
tp2700
Rp2701
sg37
g38
sg39
I0
sg40
I00
sg41
I0
sg42
g27
(g31
S'\xfa~j\xbct\x93h@'
p2702
tp2703
Rp2704
sg46
Nsg47
I0
sg48
I00
sg49
g50
sg56
g27
(g31
S'\x87\x9e\x19\x88L\x8c\xb3@'
p2705
tp2706
Rp2707
sg60
I00
sg61
g22
(S'\x07\xe1\n\x1e\t\x1f5\t\xc7\xe3'
p2708
tp2709
Rp2710
sg65
g27
(g68
S'\x00(\x00\x00\x00\x00\x00\x00'
p2711
tp2712
Rp2713
sba(icoord
CoordRequest
p2714
(dp2715
g4
g5
sg6
g2469
sg8
g2470
sg20
Nsg21
g22
(S'\x07\xe1\n\x1e\t:\x15\x0c7\xf0'
p2716
tp2717
Rp2718
sg26
g27
(g31
S'\x9b\x9e\xda\xee<\xae\x97@'
p2719
tp2720
Rp2721
sg37
g38
sg39
I0
sg40
I00
sg41
I0
sg42
g27
(g31
S'\xfa~j\xbct\x93X@'
p2722
tp2723
Rp2724
sg46
Nsg47
I0
sg48
I00
sg49
g50
sg56
g27
(g31
S'\x8cwLr\xa3\xd0\x98@'
p2725
tp2726
Rp2727
sg60
I00
sg61
g22
(S'\x07\xe1\n\x1e\t\x1f5\t\xc8p'
p2728
tp2729
Rp2730
sg65
g27
(g68
S'\x00\x14\x00\x00\x00\x00\x00\x00'
p2731
tp2732
Rp2733
sba(icoord
CoordRequest
p2734
(dp2735
g4
g5
sg6
g2469
sg8
g2470
sg20
Nsg21
g22
(S'\x07\xe1\n\x1e\t \x0c\x0e\xfe='
p2736
tp2737
Rp2738
sg26
g27
(g31
S'M\x0e\x86\xc7\xfe/X@'
p2739
tp2740
Rp2741
sg37
g38
sg39
I0
sg40
I00
sg41
I0
sg42
g27
(g31
S'a2U0*\xa9#@'
p2742
tp2743
Rp2744
sg46
Nsg47
I0
sg48
I00
sg49
g50
sg56
g27
(g31
S'g\xd5F\xbe_W3@'
p2745
tp2746
Rp2747
sg60
I00
sg61
g22
(S'\x07\xe1\n\x1e\t\x1f5\t\xc9\x04'
p2748
tp2749
Rp2750
sg65
g27
(g68
S'\x00\x02\x00\x00\x00\x00\x00\x00'
p2751
tp2752
Rp2753
sba(icoord
CoordRequest
p2754
(dp2755
g4
g5
sg6
g2469
sg8
g2470
sg20
Nsg21
g22
(S'\x07\xe1\n\x1e\x0b\x199\x01&\x86'
p2756
tp2757
Rp2758
sg26
g27
(g31
S' \xc6\x8c,\x00\x91\x90@'
p2759
tp2760
Rp2761
sg37
g38
sg39
I0
sg40
I00
sg41
I0
sg42
g27
(g31
S';\xdfO\x8d\x97n\x82@'
p2762
tp2763
Rp2764
sg46
Nsg47
I0
sg48
I00
sg49
g50
sg56
g27
(g31
S'yv(\x18o\xbb\xba@'
p2765
tp2766
Rp2767
sg60
I00
sg61
g22
(S'\x07\xe1\n\x1e\t\x1f5\t\xc9\x9c'
p2768
tp2769
Rp2770
sg65
g27
(g68
S'\x00x\x00\x00\x00\x00\x00\x00'
p2771
tp2772
Rp2773
sba(icoord
CoordRequest
p2774
(dp2775
g4
g5
sg6
g2469
sg8
g2470
sg20
Nsg21
g22
(S'\x07\xe1\n\x1e\n"/\nN\''
p2776
tp2777
Rp2778
sg26
g27
(g31
S'W\x12nd\xdcn\x92@'
p2779
tp2780
Rp2781
sg37
g38
sg39
I0
sg40
I00
sg41
I0
sg42
g27
(g31
S';\xdfO\x8d\x97nr@'
p2782
tp2783
Rp2784
sg46
Nsg47
I0
sg48
I00
sg49
g50
sg56
g27
(g31
S'&\xb4GJ\x11|\xad@'
p2785
tp2786
Rp2787
sg60
I00
sg61
g22
(S'\x07\xe1\n\x1e\t\x1f5\t\xca='
p2788
tp2789
Rp2790
sg65
g27
(g68
S'\x00<\x00\x00\x00\x00\x00\x00'
p2791
tp2792
Rp2793
sba(icoord
CoordRequest
p2794
(dp2795
g4
g5
sg6
g2469
sg8
g2470
sg20
Nsg21
g22
(S'\x07\xe1\n\x1e\n\x0e;\x06\x0f\xa3'
p2796
tp2797
Rp2798
sg26
g27
(g31
S'\xb8\x01\xb3\x82OF\x88@'
p2799
tp2800
Rp2801
sg37
g38
sg39
I0
sg40
I00
sg41
I0
sg42
g27
(g31
S';\xdfO\x8d\x97nr@'
p2802
tp2803
Rp2804
sg46
Nsg47
I0
sg48
I00
sg49
g50
sg56
g27
(g31
S'T\x93\x05\xcb\x823\xa4@'
p2805
tp2806
Rp2807
sg60
I00
sg61
g22
(S'\x07\xe1\n\x1e\t\x1f5\t\xca\xe4'
p2808
tp2809
Rp2810
sg65
g27
(g68
S'\x00<\x00\x00\x00\x00\x00\x00'
p2811
tp2812
Rp2813
sba(icoord
CoordRequest
p2814
(dp2815
g4
g5
sg6
g2469
sg8
g2470
sg20
Nsg21
g22
(S'\x07\xe1\n\x1e\t"\x1f\x0eV\xcd'
p2816
tp2817
Rp2818
sg26
g27
(g31
S'?\x9a\x97\xfc\xdc\x02\x86@'
p2819
tp2820
Rp2821
sg37
g38
sg39
I0
sg40
I00
sg41
I0
sg42
g27
(g31
S'\xaeG\xe1z\x14\xae3@'
p2822
tp2823
Rp2824
sg46
Nsg47
I0
sg48
I00
sg49
g50
sg56
g27
(g31
S'\x83\xe3\xc1:\x86\xc9c@'
p2825
tp2826
Rp2827
sg60
I00
sg61
g22
(S'\x07\xe1\n\x1e\t\x1f5\t\xcc*'
p2828
tp2829
Rp2830
sg65
g27
(g68
S'\x01\x04\x00\x00\x00\x00\x00\x00'
p2831
tp2832
Rp2833
sba(icoord
CoordRequest
p2834
(dp2835
g4
g5
sg6
g2469
sg8
g2470
sg20
Nsg21
g22
(S"\x07\xe1\n\x1e\t'\r\x02;\t"
p2836
tp2837
Rp2838
sg26
g27
(g31
S'7\x00\xf3\xaa\xc4\xe2^@'
p2839
tp2840
Rp2841
sg37
g38
sg39
I0
sg40
I00
sg41
I0
sg42
g27
(g31
S'\xfa~j\xbct\x93h@'
p2842
tp2843
Rp2844
sg46
Nsg47
I0
sg48
I00
sg49
g50
sg56
g27
(g31
S'\x8d\x8a\x8e\x0e\x10x{@'
p2845
tp2846
Rp2847
sg60
I00
sg61
g22
(S'\x07\xe1\n\x1e\t\x1f5\t\xcc\xd9'
p2848
tp2849
Rp2850
sg65
g27
(g68
S'\x00(\x00\x00\x00\x00\x00\x00'
p2851
tp2852
Rp2853
sba(icoord
CoordRequest
p2854
(dp2855
g4
g5
sg6
g2469
sg8
g2470
sg20
Nsg21
g22
(S'\x07\xe1\n\x1e\t!\x07\x0c;\xf3'
p2856
tp2857
Rp2858
sg26
g27
(g31
S'\x92\xc9a\xae\x1as\x84@'
p2859
tp2860
Rp2861
sg37
g38
sg39
I0
sg40
I00
sg41
I0
sg42
g27
(g31
S'a2U0*\xa9#@'
p2862
tp2863
Rp2864
sg46
Nsg47
I0
sg48
I00
sg49
g50
sg56
g27
(g31
S'}\x105\xf72\x8aR@'
p2865
tp2866
Rp2867
sg60
I00
sg61
g22
(S'\x07\xe1\n\x1e\t\x1f5\t\xcdr'
p2868
tp2869
Rp2870
sg65
g27
(g68
S'\x00\x02\x00\x00\x00\x00\x00\x00'
p2871
tp2872
Rp2873
sbag2467
a(icoord
CoordRequest
p2874
(dp2875
g4
g5
sg6
g2469
sg8
g2470
sg20
Nsg21
g22
(S'\x07\xe1\n\x1e\n7$\x01\xaa '
p2876
tp2877
Rp2878
sg26
g27
(g31
S'\x03e\x1d\xda\xa2\x1a\xa3@'
p2879
tp2880
Rp2881
sg37
g38
sg39
I0
sg40
I00
sg41
I0
sg42
g27
(g31
S'\xfa~j\xbct\x93h@'
p2882
tp2883
Rp2884
sg46
Nsg47
I0
sg48
I00
sg49
g50
sg56
g27
(g31
S'\x87\x9e\x19\x88L\x8c\xb3@'
p2885
tp2886
Rp2887
sg60
I00
sg61
g22
(S'\x07\xe1\n\x1e\t \x0b\x0c\\\x98'
p2888
tp2889
Rp2890
sg65
g27
(g68
S'\x00(\x00\x00\x00\x00\x00\x00'
p2891
tp2892
Rp2893
sba(icoord
CoordRequest
p2894
(dp2895
g4
g5
sg6
g2469
sg8
g2470
sg20
Nsg21
g22
(S"\x07\xe1\n\x1e\t:'\x0e\xcc\xa1"
p2896
tp2897
Rp2898
sg26
g27
(g31
S'\x9b\x9e\xda\xee<\xae\x97@'
p2899
tp2900
Rp2901
sg37
g38
sg39
I0
sg40
I00
sg41
I0
sg42
g27
(g31
S'\xfa~j\xbct\x93X@'
p2902
tp2903
Rp2904
sg46
Nsg47
I0
sg48
I00
sg49
g50
sg56
g27
(g31
S'\x8cwLr\xa3\xd0\x98@'
p2905
tp2906
Rp2907
sg60
I00
sg61
g22
(S'\x07\xe1\n\x1e\t \x0b\x0c]!'
p2908
tp2909
Rp2910
sg65
g27
(g68
S'\x00\x14\x00\x00\x00\x00\x00\x00'
p2911
tp2912
Rp2913
sba(icoord
CoordRequest
p2914
(dp2915
g4
g5
sg6
g2469
sg8
g2470
sg20
Nsg21
g22
(S'\x07\xe1\n\x1e\t \x1f\x02P\xa7'
p2916
tp2917
Rp2918
sg26
g27
(g31
S'M\x0e\x86\xc7\xfe/X@'
p2919
tp2920
Rp2921
sg37
g38
sg39
I0
sg40
I00
sg41
I0
sg42
g27
(g31
S'a2U0*\xa9#@'
p2922
tp2923
Rp2924
sg46
Nsg47
I0
sg48
I00
sg49
g50
sg56
g27
(g31
S'g\xd5F\xbe_W3@'
p2925
tp2926
Rp2927
sg60
I00
sg61
g22
(S'\x07\xe1\n\x1e\t \x0b\x0c]\xae'
p2928
tp2929
Rp2930
sg65
g27
(g68
S'\x00\x02\x00\x00\x00\x00\x00\x00'
p2931
tp2932
Rp2933
sba(icoord
CoordRequest
p2934
(dp2935
g4
g5
sg6
g2469
sg8
g2470
sg20
Nsg21
g22
(S'\x07\xe1\n\x1e\x0b\x1a\x0f\x03\xbb\xa0'
p2936
tp2937
Rp2938
sg26
g27
(g31
S' \xc6\x8c,\x00\x91\x90@'
p2939
tp2940
Rp2941
sg37
g38
sg39
I0
sg40
I00
sg41
I0
sg42
g27
(g31
S';\xdfO\x8d\x97n\x82@'
p2942
tp2943
Rp2944
sg46
Nsg47
I0
sg48
I00
sg49
g50
sg56
g27
(g31
S'yv(\x18o\xbb\xba@'
p2945
tp2946
Rp2947
sg60
I00
sg61
g22
(S'\x07\xe1\n\x1e\t \x0b\x0c^\xb6'
p2948
tp2949
Rp2950
sg65
g27
(g68
S'\x00x\x00\x00\x00\x00\x00\x00'
p2951
tp2952
Rp2953
sba(icoord
CoordRequest
p2954
(dp2955
g4
g5
sg6
g2469
sg8
g2470
sg20
Nsg21
g22
(S'\x07\xe1\n\x1e\n#\x05\x0c\xe3@'
p2956
tp2957
Rp2958
sg26
g27
(g31
S'W\x12nd\xdcn\x92@'
p2959
tp2960
Rp2961
sg37
g38
sg39
I0
sg40
I00
sg41
I0
sg42
g27
(g31
S';\xdfO\x8d\x97nr@'
p2962
tp2963
Rp2964
sg46
Nsg47
I0
sg48
I00
sg49
g50
sg56
g27
(g31
S'&\xb4GJ\x11|\xad@'
p2965
tp2966
Rp2967
sg60
I00
sg61
g22
(S'\x07\xe1\n\x1e\t \x0b\x0c_V'
p2968
tp2969
Rp2970
sg65
g27
(g68
S'\x00<\x00\x00\x00\x00\x00\x00'
p2971
tp2972
Rp2973
sba(icoord
CoordRequest
p2974
(dp2975
g4
g5
sg6
g2469
sg8
g2470
sg20
Nsg21
g22
(S'\x07\xe1\n\x1e\n\x0f\x11\x08\xa4\xa2'
p2976
tp2977
Rp2978
sg26
g27
(g31
S'\xb8\x01\xb3\x82OF\x88@'
p2979
tp2980
Rp2981
sg37
g38
sg39
I0
sg40
I00
sg41
I0
sg42
g27
(g31
S';\xdfO\x8d\x97nr@'
p2982
tp2983
Rp2984
sg46
Nsg47
I0
sg48
I00
sg49
g50
sg56
g27
(g31
S'T\x93\x05\xcb\x823\xa4@'
p2985
tp2986
Rp2987
sg60
I00
sg61
g22
(S'\x07\xe1\n\x1e\t \x0b\x0c_\xe3'
p2988
tp2989
Rp2990
sg65
g27
(g68
S'\x00<\x00\x00\x00\x00\x00\x00'
p2991
tp2992
Rp2993
sba(icoord
CoordRequest
p2994
(dp2995
g4
g5
sg6
g2469
sg8
g2470
sg20
Nsg21
g22
(S'\x07\xe1\n\x1e\t"2\x01\xa8\xd5'
p2996
tp2997
Rp2998
sg26
g27
(g31
S'?\x9a\x97\xfc\xdc\x02\x86@'
p2999
tp3000
Rp3001
sg37
g38
sg39
I0
sg40
I00
sg41
I0
sg42
g27
(g31
S'\xaeG\xe1z\x14\xae3@'
p3002
tp3003
Rp3004
sg46
Nsg47
I0
sg48
I00
sg49
g50
sg56
g27
(g31
S'\x83\xe3\xc1:\x86\xc9c@'
p3005
tp3006
Rp3007
sg60
I00
sg61
g22
(S'\x07\xe1\n\x1e\t \x0b\x0c`r'
p3008
tp3009
Rp3010
sg65
g27
(g68
S'\x01\x04\x00\x00\x00\x00\x00\x00'
p3011
tp3012
Rp3013
sba(icoord
CoordRequest
p3014
(dp3015
g4
g5
sg6
g2469
sg8
g2470
sg20
Nsg21
g22
(S"\x07\xe1\n\x1e\t'\x1f\x04\xcf;"
p3016
tp3017
Rp3018
sg26
g27
(g31
S'7\x00\xf3\xaa\xc4\xe2^@'
p3019
tp3020
Rp3021
sg37
g38
sg39
I0
sg40
I00
sg41
I0
sg42
g27
(g31
S'\xfa~j\xbct\x93h@'
p3022
tp3023
Rp3024
sg46
Nsg47
I0
sg48
I00
sg49
g50
sg56
g27
(g31
S'\x8d\x8a\x8e\x0e\x10x{@'
p3025
tp3026
Rp3027
sg60
I00
sg61
g22
(S'\x07\xe1\n\x1e\t \x0b\x0ca\x0b'
p3028
tp3029
Rp3030
sg65
g27
(g68
S'\x00(\x00\x00\x00\x00\x00\x00'
p3031
tp3032
Rp3033
sba(icoord
CoordRequest
p3034
(dp3035
g4
g5
sg6
g2469
sg8
g2470
sg20
Nsg21
g22
(S"\x07\xe1\n\x1e\t!\x19\x0e\xd0'"
p3036
tp3037
Rp3038
sg26
g27
(g31
S'\x92\xc9a\xae\x1as\x84@'
p3039
tp3040
Rp3041
sg37
g38
sg39
I0
sg40
I00
sg41
I0
sg42
g27
(g31
S'a2U0*\xa9#@'
p3042
tp3043
Rp3044
sg46
Nsg47
I0
sg48
I00
sg49
g50
sg56
g27
(g31
S'}\x105\xf72\x8aR@'
p3045
tp3046
Rp3047
sg60
I00
sg61
g22
(S'\x07\xe1\n\x1e\t \x0b\x0ca\xa6'
p3048
tp3049
Rp3050
sg65
g27
(g68
S'\x00\x02\x00\x00\x00\x00\x00\x00'
p3051
tp3052
Rp3053
sbasg54
g55
sbsg20
Nsg21
g22
(S"\x07\xe1\n\x1e\t'\t\x00\xc0?"
p3054
tp3055
Rp3056
sg26
g27
(g31
S'\x00\x11.YW\xbdD@'
p3057
tp3058
Rp3059
sg37
g38
sg39
I0
sg40
I00
sg41
I0
sg42
g27
(g31
S';\xdfO\x8d\x97nr@'
p3060
tp3061
Rp3062
sg46
Nsg47
I0
sg48
I00
sg49
g50
sg56
g27
(g31
S'\xdb\xcb\xc4\xd9\xd3\x13z@'
p3063
tp3064
Rp3065
sg60
I00
sg61
g22
(S'\x07\xe1\n\x1e\t \x0b\x0c\\\n'
p3066
tp3067
Rp3068
sg65
g27
(g68
S'\x00<\x00\x00\x00\x00\x00\x00'
p3069
tp3070
Rp3071
sba(icoord
CoordRequest
p3072
(dp3073
g4
g5
sg6
S'atla-200'
p3074
sg8
(icoord
DTN
p3075
(dp3076
g11
Nsg12
g3074
sg13
S'192.168.120.200'
p3077
sg15
Nsg16
(lp3078
(icoord
CoordRequest
p3079
(dp3080
g4
g5
sg6
g3074
sg8
g3075
sg20
Nsg21
g22
(S'\x07\xe1\n\x1e\t\x1f\x0c\x079\xc8'
p3081
tp3082
Rp3083
sg26
g27
(g31
S'\xcc\xaaZ~akJ@'
p3084
tp3085
Rp3086
sg37
g38
sg39
I0
sg40
I00
sg41
I0
sg42
g27
(g31
S'a2U0*\xa9#@'
p3087
tp3088
Rp3089
sg46
Nsg47
I0
sg48
I00
sg49
g50
sg56
g27
(g31
S'\xe0HKe\xa2\x0c.@'
p3090
tp3091
Rp3092
sg60
I00
sg61
g22
(S'\x07\xe1\n\x1e\t\x1e9\x06\xd9d'
p3093
tp3094
Rp3095
sg65
g27
(g68
S'\x00\x02\x00\x00\x00\x00\x00\x00'
p3096
tp3097
Rp3098
sba(icoord
CoordRequest
p3099
(dp3100
g4
g5
sg6
g3074
sg8
g3075
sg20
Nsg21
g22
(S'\x07\xe1\n\x1e\n\x10\x05\r"\x00'
p3101
tp3102
Rp3103
sg26
g27
(g31
S'\x0f?\x8bg\t\x93\x89@'
p3104
tp3105
Rp3106
sg37
g38
sg39
I0
sg40
I00
sg41
I0
sg42
g27
(g31
S';\xdfO\x8d\x97nr@'
p3107
tp3108
Rp3109
sg46
Nsg47
I0
sg48
I00
sg49
g50
sg56
g27
(g31
S'\xe9\xfd,\xc0\xd2(\xa5@'
p3110
tp3111
Rp3112
sg60
I00
sg61
g22
(S'\x07\xe1\n\x1e\t\x1e9\x06\xda\x1a'
p3113
tp3114
Rp3115
sg65
g27
(g68
S'\x00<\x00\x00\x00\x00\x00\x00'
p3116
tp3117
Rp3118
sba(icoord
CoordRequest
p3119
(dp3120
g4
g5
sg6
g3074
sg8
g3075
sg20
Nsg21
g22
(S'\x07\xe1\n\x1e\t\x1f$\x08\x88q'
p3121
tp3122
Rp3123
sg26
g27
(g31
S'\xce\x1cxw\x8e\x9dr@'
p3124
tp3125
Rp3126
sg37
g38
sg39
I0
sg40
I00
sg41
I0
sg42
g27
(g31
S'a2U0*\xa9#@'
p3127
tp3128
Rp3129
sg46
Nsg47
I0
sg48
I00
sg49
g50
sg56
g27
(g31
S'\xc7 f\xcc\x13\x8eC@'
p3130
tp3131
Rp3132
sg60
I00
sg61
g22
(S'\x07\xe1\n\x1e\t\x1e9\x06\xda\xd6'
p3133
tp3134
Rp3135
sg65
g27
(g68
S'\x00\x02\x00\x00\x00\x00\x00\x00'
p3136
tp3137
Rp3138
sba(icoord
CoordRequest
p3139
(dp3140
g4
g5
sg6
g3074
sg8
g3075
sg20
Nsg21
g22
(S'\x07\xe1\n\x1e\t \x1b\x07\xb1\x9b'
p3141
tp3142
Rp3143
sg26
g27
(g31
S'b\xa5\x14{\xae\x80\x89@'
p3144
tp3145
Rp3146
sg37
g38
sg39
I0
sg40
I00
sg41
I0
sg42
g27
(g31
S'a2U0*\xa9#@'
p3147
tp3148
Rp3149
sg46
Nsg47
I0
sg48
I00
sg49
g50
sg56
g27
(g31
S'];\xc3{\x82\x83V@'
p3150
tp3151
Rp3152
sg60
I00
sg61
g22
(S'\x07\xe1\n\x1e\t\x1e9\x06\xdbd'
p3153
tp3154
Rp3155
sg65
g27
(g68
S'\x00\x02\x00\x00\x00\x00\x00\x00'
p3156
tp3157
Rp3158
sba(icoord
CoordRequest
p3159
(dp3160
g4
g5
sg6
g3074
sg8
g3075
sg20
Nsg21
g22
(S'\x07\xe1\n\x1e\x0b\x07 \x075\xc2'
p3161
tp3162
Rp3163
sg26
g27
(g31
S'\xec\xca \xc3\x00\x94\x8b@'
p3164
tp3165
Rp3166
sg37
g38
sg39
I0
sg40
I00
sg41
I0
sg42
g27
(g31
S';\xdfO\x8d\x97n\x82@'
p3167
tp3168
Rp3169
sg46
Nsg47
I0
sg48
I00
sg49
g50
sg56
g27
(g31
S'\xabI\x03\xe3\x05\xa3\xb6@'
p3170
tp3171
Rp3172
sg60
I00
sg61
g22
(S'\x07\xe1\n\x1e\t\x1e9\x06\xdb\xef'
p3173
tp3174
Rp3175
sg65
g27
(g68
S'\x00x\x00\x00\x00\x00\x00\x00'
p3176
tp3177
Rp3178
sba(icoord
CoordRequest
p3179
(dp3180
g4
g5
sg6
g3074
sg8
g3075
sg20
Nsg21
g22
(S'\x07\xe1\n\x1e\t0:\x02\xe8>'
p3181
tp3182
Rp3183
sg26
g27
(g31
S'~\x02\x08w\x17\x1b|@'
p3184
tp3185
Rp3186
sg37
g38
sg39
I0
sg40
I00
sg41
I0
sg42
g27
(g31
S'\xfa~j\xbct\x93h@'
p3187
tp3188
Rp3189
sg46
Nsg47
I0
sg48
I00
sg49
g50
sg56
g27
(g31
S'\x9b\xa2\xd6\xa4\xf6\xe2\x90@'
p3190
tp3191
Rp3192
sg60
I00
sg61
g22
(S'\x07\xe1\n\x1e\t\x1e9\x06\xdc\x7f'
p3193
tp3194
Rp3195
sg65
g27
(g68
S'\x00(\x00\x00\x00\x00\x00\x00'
p3196
tp3197
Rp3198
sba(icoord
CoordRequest
p3199
(dp3200
g4
g5
sg6
g3074
sg8
g3075
sg20
Nsg21
g22
(S'\x07\xe1\n\x1e\t \x13\x0b\x9eZ'
p3201
tp3202
Rp3203
sg26
g27
(g31
S'\xb7\x8e+\x85\x89\n\x87@'
p3204
tp3205
Rp3206
sg37
g38
sg39
I0
sg40
I00
sg41
I0
sg42
g27
(g31
S'a2U0*\xa9#@'
p3207
tp3208
Rp3209
sg46
Nsg47
I0
sg48
I00
sg49
g50
sg56
g27
(g31
S'\xd5\x0c\xdb\xa9\xf1\x93T@'
p3210
tp3211
Rp3212
sg60
I00
sg61
g22
(S'\x07\xe1\n\x1e\t\x1e9\x06\xdd\x11'
p3213
tp3214
Rp3215
sg65
g27
(g68
S'\x00\x02\x00\x00\x00\x00\x00\x00'
p3216
tp3217
Rp3218
sba(icoord
CoordRequest
p3219
(dp3220
g4
g5
sg6
g3074
sg8
g3075
sg20
Nsg21
g22
(S'\x07\xe1\n\x1e\t/\x1c\x05-n'
p3221
tp3222
Rp3223
sg26
g27
(g31
S'P2(\xc9\xe0_\x8c@'
p3224
tp3225
Rp3226
sg37
g38
sg39
I0
sg40
I00
sg41
I0
sg42
g27
(g31
S'\xfa~j\xbct\x93X@'
p3227
tp3228
Rp3229
sg46
Nsg47
I0
sg48
I00
sg49
g50
sg56
g27
(g31
S'\xceM\xce\\\x1d\xf7\x8e@'
p3230
tp3231
Rp3232
sg60
I00
sg61
g22
(S'\x07\xe1\n\x1e\t\x1e9\x06\xdd\xb5'
p3233
tp3234
Rp3235
sg65
g27
(g68
S'\x00\x14\x00\x00\x00\x00\x00\x00'
p3236
tp3237
Rp3238
sba(icoord
CoordRequest
p3239
(dp3240
g4
g5
sg6
g3074
sg8
g3075
sg20
Nsg21
g22
(S'\x07\xe1\n\x1e\t)\x0f\x02!\x1c'
p3241
tp3242
Rp3243
sg26
g27
(g31
S'IP\xf7\xd9T\xbd\xa7@'
p3244
tp3245
Rp3246
sg37
g38
sg39
I0
sg40
I00
sg41
I0
sg42
g27
(g31
S'\xaeG\xe1z\x14\xae3@'
p3247
tp3248
Rp3249
sg46
Nsg47
I0
sg48
I00
sg49
g50
sg56
g27
(g31
S'\xe5\xdc\xe3\xeb\x83M\x83@'
p3250
tp3251
Rp3252
sg60
I00
sg61
g22
(S'\x07\xe1\n\x1e\t\x1e9\x06\xdeU'
p3253
tp3254
Rp3255
sg65
g27
(g68
S'\x01\x04\x00\x00\x00\x00\x00\x00'
p3256
tp3257
Rp3258
sba(icoord
CoordRequest
p3259
(dp3260
g4
g5
sg6
g3074
sg8
g3075
sg20
Nsg21
g22
(S'\x07\xe1\n\x1e\t )\r\x83\xdf'
p3261
tp3262
Rp3263
sg26
g27
(g31
S'RYL\xa8\xaf\xeaz@'
p3264
tp3265
Rp3266
sg37
g38
sg39
I0
sg40
I00
sg41
I0
sg42
g27
(g31
S'\xaeG\xe1z\x14\xae3@'
p3267
tp3268
Rp3269
sg46
Nsg47
I0
sg48
I00
sg49
g50
sg56
g27
(g31
S'\x1c5\xda>\xde\x1bZ@'
p3270
tp3271
Rp3272
sg60
I00
sg61
g22
(S'\x07\xe1\n\x1e\t\x1e9\x06\xde\xef'
p3273
tp3274
Rp3275
sg65
g27
(g68
S'\x01\x04\x00\x00\x00\x00\x00\x00'
p3276
tp3277
Rp3278
sba(icoord
CoordRequest
p3279
(dp3280
g4
g5
sg6
g3074
sg8
g3075
sg20
Nsg21
g22
(S"\x07\xe1\n\x1e\t \x08\n'\xce"
p3281
tp3282
Rp3283
sg26
g27
(g31
S'\xcc\xaaZ~akJ@'
p3284
tp3285
Rp3286
sg37
g38
sg39
I0
sg40
I00
sg41
I0
sg42
g27
(g31
S'a2U0*\xa9#@'
p3287
tp3288
Rp3289
sg46
Nsg47
I0
sg48
I00
sg49
g50
sg56
g27
(g31
S'\xe0HKe\xa2\x0c.@'
p3290
tp3291
Rp3292
sg60
I00
sg61
g22
(S'\x07\xe1\n\x1e\t\x1f5\t\xc7j'
p3293
tp3294
Rp3295
sg65
g27
(g68
S'\x00\x02\x00\x00\x00\x00\x00\x00'
p3296
tp3297
Rp3298
sba(icoord
CoordRequest
p3299
(dp3300
g4
g5
sg6
g3074
sg8
g3075
sg20
Nsg21
g22
(S'\x07\xe1\n\x1e\n\x11\x02\x00\xcd\xa0'
p3301
tp3302
Rp3303
sg26
g27
(g31
S'\x0f?\x8bg\t\x93\x89@'
p3304
tp3305
Rp3306
sg37
g38
sg39
I0
sg40
I00
sg41
I0
sg42
g27
(g31
S';\xdfO\x8d\x97nr@'
p3307
tp3308
Rp3309
sg46
Nsg47
I0
sg48
I00
sg49
g50
sg56
g27
(g31
S'\xe9\xfd,\xc0\xd2(\xa5@'
p3310
tp3311
Rp3312
sg60
I00
sg61
g22
(S'\x07\xe1\n\x1e\t\x1f5\t\xc7\xfa'
p3313
tp3314
Rp3315
sg65
g27
(g68
S'\x00<\x00\x00\x00\x00\x00\x00'
p3316
tp3317
Rp3318
sba(icoord
CoordRequest
p3319
(dp3320
g4
g5
sg6
g3074
sg8
g3075
sg20
Nsg21
g22
(S'\x07\xe1\n\x1e\t  \x0bv('
p3321
tp3322
Rp3323
sg26
g27
(g31
S'\xce\x1cxw\x8e\x9dr@'
p3324
tp3325
Rp3326
sg37
g38
sg39
I0
sg40
I00
sg41
I0
sg42
g27
(g31
S'a2U0*\xa9#@'
p3327
tp3328
Rp3329
sg46
Nsg47
I0
sg48
I00
sg49
g50
sg56
g27
(g31
S'\xc7 f\xcc\x13\x8eC@'
p3330
tp3331
Rp3332
sg60
I00
sg61
g22
(S'\x07\xe1\n\x1e\t\x1f5\t\xc8\x8d'
p3333
tp3334
Rp3335
sg65
g27
(g68
S'\x00\x02\x00\x00\x00\x00\x00\x00'
p3336
tp3337
Rp3338
sba(icoord
CoordRequest
p3339
(dp3340
g4
g5
sg6
g3074
sg8
g3075
sg20
Nsg21
g22
(S'\x07\xe1\n\x1e\t!\x17\n\x9fT'
p3341
tp3342
Rp3343
sg26
g27
(g31
S'b\xa5\x14{\xae\x80\x89@'
p3344
tp3345
Rp3346
sg37
g38
sg39
I0
sg40
I00
sg41
I0
sg42
g27
(g31
S'a2U0*\xa9#@'
p3347
tp3348
Rp3349
sg46
Nsg47
I0
sg48
I00
sg49
g50
sg56
g27
(g31
S'];\xc3{\x82\x83V@'
p3350
tp3351
Rp3352
sg60
I00
sg61
g22
(S'\x07\xe1\n\x1e\t\x1f5\t\xc9\x1d'
p3353
tp3354
Rp3355
sg65
g27
(g68
S'\x00\x02\x00\x00\x00\x00\x00\x00'
p3356
tp3357
Rp3358
sba(icoord
CoordRequest
p3359
(dp3360
g4
g5
sg6
g3074
sg8
g3075
sg20
Nsg21
g22
(S'\x07\xe1\n\x1e\x0b\x08\x1c\n#\x89'
p3361
tp3362
Rp3363
sg26
g27
(g31
S'\xec\xca \xc3\x00\x94\x8b@'
p3364
tp3365
Rp3366
sg37
g38
sg39
I0
sg40
I00
sg41
I0
sg42
g27
(g31
S';\xdfO\x8d\x97n\x82@'
p3367
tp3368
Rp3369
sg46
Nsg47
I0
sg48
I00
sg49
g50
sg56
g27
(g31
S'\xabI\x03\xe3\x05\xa3\xb6@'
p3370
tp3371
Rp3372
sg60
I00
sg61
g22
(S'\x07\xe1\n\x1e\t\x1f5\t\xc9\xb6'
p3373
tp3374
Rp3375
sg65
g27
(g68
S'\x00x\x00\x00\x00\x00\x00\x00'
p3376
tp3377
Rp3378
sba(icoord
CoordRequest
p3379
(dp3380
g4
g5
sg6
g3074
sg8
g3075
sg20
Nsg21
g22
(S'\x07\xe1\n\x1e\t16\x05\xd6\x18'
p3381
tp3382
Rp3383
sg26
g27
(g31
S'~\x02\x08w\x17\x1b|@'
p3384
tp3385
Rp3386
sg37
g38
sg39
I0
sg40
I00
sg41
I0
sg42
g27
(g31
S'\xfa~j\xbct\x93h@'
p3387
tp3388
Rp3389
sg46
Nsg47
I0
sg48
I00
sg49
g50
sg56
g27
(g31
S'\x9b\xa2\xd6\xa4\xf6\xe2\x90@'
p3390
tp3391
Rp3392
sg60
I00
sg61
g22
(S'\x07\xe1\n\x1e\t\x1f5\t\xcaY'
p3393
tp3394
Rp3395
sg65
g27
(g68
S'\x00(\x00\x00\x00\x00\x00\x00'
p3396
tp3397
Rp3398
sba(icoord
CoordRequest
p3399
(dp3400
g4
g5
sg6
g3074
sg8
g3075
sg20
Nsg21
g22
(S'\x07\xe1\n\x1e\t!\x0f\x0e\x8cH'
p3401
tp3402
Rp3403
sg26
g27
(g31
S'\xb7\x8e+\x85\x89\n\x87@'
p3404
tp3405
Rp3406
sg37
g38
sg39
I0
sg40
I00
sg41
I0
sg42
g27
(g31
S'a2U0*\xa9#@'
p3407
tp3408
Rp3409
sg46
Nsg47
I0
sg48
I00
sg49
g50
sg56
g27
(g31
S'\xd5\x0c\xdb\xa9\xf1\x93T@'
p3410
tp3411
Rp3412
sg60
I00
sg61
g22
(S'\x07\xe1\n\x1e\t\x1f5\t\xca\xff'
p3413
tp3414
Rp3415
sg65
g27
(g68
S'\x00\x02\x00\x00\x00\x00\x00\x00'
p3416
tp3417
Rp3418
sba(icoord
CoordRequest
p3419
(dp3420
g4
g5
sg6
g3074
sg8
g3075
sg20
Nsg21
g22
(S'\x07\xe1\n\x1e\t0\x18\x08\x1c\x0f'
p3421
tp3422
Rp3423
sg26
g27
(g31
S'P2(\xc9\xe0_\x8c@'
p3424
tp3425
Rp3426
sg37
g38
sg39
I0
sg40
I00
sg41
I0
sg42
g27
(g31
S'\xfa~j\xbct\x93X@'
p3427
tp3428
Rp3429
sg46
Nsg47
I0
sg48
I00
sg49
g50
sg56
g27
(g31
S'\xceM\xce\\\x1d\xf7\x8e@'
p3430
tp3431
Rp3432
sg60
I00
sg61
g22
(S'\x07\xe1\n\x1e\t\x1f5\t\xccV'
p3433
tp3434
Rp3435
sg65
g27
(g68
S'\x00\x14\x00\x00\x00\x00\x00\x00'
p3436
tp3437
Rp3438
sba(icoord
CoordRequest
p3439
(dp3440
g4
g5
sg6
g3074
sg8
g3075
sg20
Nsg21
g22
(S'\x07\xe1\n\x1e\t*\x0b\x05\x0f\xbc'
p3441
tp3442
Rp3443
sg26
g27
(g31
S'IP\xf7\xd9T\xbd\xa7@'
p3444
tp3445
Rp3446
sg37
g38
sg39
I0
sg40
I00
sg41
I0
sg42
g27
(g31
S'\xaeG\xe1z\x14\xae3@'
p3447
tp3448
Rp3449
sg46
Nsg47
I0
sg48
I00
sg49
g50
sg56
g27
(g31
S'\xe5\xdc\xe3\xeb\x83M\x83@'
p3450
tp3451
Rp3452
sg60
I00
sg61
g22
(S'\x07\xe1\n\x1e\t\x1f5\t\xcc\xf5'
p3453
tp3454
Rp3455
sg65
g27
(g68
S'\x01\x04\x00\x00\x00\x00\x00\x00'
p3456
tp3457
Rp3458
sba(icoord
CoordRequest
p3459
(dp3460
g4
g5
sg6
g3074
sg8
g3075
sg20
Nsg21
g22
(S'\x07\xe1\n\x1e\t!&\x010:'
p3461
tp3462
Rp3463
sg26
g27
(g31
S'RYL\xa8\xaf\xeaz@'
p3464
tp3465
Rp3466
sg37
g38
sg39
I0
sg40
I00
sg41
I0
sg42
g27
(g31
S'\xaeG\xe1z\x14\xae3@'
p3467
tp3468
Rp3469
sg46
Nsg47
I0
sg48
I00
sg49
g50
sg56
g27
(g31
S'\x1c5\xda>\xde\x1bZ@'
p3470
tp3471
Rp3472
sg60
I00
sg61
g22
(S'\x07\xe1\n\x1e\t\x1f5\t\xcd\x8a'
p3473
tp3474
Rp3475
sg65
g27
(g68
S'\x01\x04\x00\x00\x00\x00\x00\x00'
p3476
tp3477
Rp3478
sbag3072
a(icoord
CoordRequest
p3479
(dp3480
g4
g5
sg6
g3074
sg8
g3075
sg20
Nsg21
g22
(S'\x07\xe1\n\x1e\n\x11\x14\x03bW'
p3481
tp3482
Rp3483
sg26
g27
(g31
S'\x0f?\x8bg\t\x93\x89@'
p3484
tp3485
Rp3486
sg37
g38
sg39
I0
sg40
I00
sg41
I0
sg42
g27
(g31
S';\xdfO\x8d\x97nr@'
p3487
tp3488
Rp3489
sg46
Nsg47
I0
sg48
I00
sg49
g50
sg56
g27
(g31
S'\xe9\xfd,\xc0\xd2(\xa5@'
p3490
tp3491
Rp3492
sg60
I00
sg61
g22
(S'\x07\xe1\n\x1e\t \x0b\x0c\\\xb1'
p3493
tp3494
Rp3495
sg65
g27
(g68
S'\x00<\x00\x00\x00\x00\x00\x00'
p3496
tp3497
Rp3498
sba(icoord
CoordRequest
p3499
(dp3500
g4
g5
sg6
g3074
sg8
g3075
sg20
Nsg21
g22
(S'\x07\xe1\n\x1e\t 2\x0e\n\xd4'
p3501
tp3502
Rp3503
sg26
g27
(g31
S'\xce\x1cxw\x8e\x9dr@'
p3504
tp3505
Rp3506
sg37
g38
sg39
I0
sg40
I00
sg41
I0
sg42
g27
(g31
S'a2U0*\xa9#@'
p3507
tp3508
Rp3509
sg46
Nsg47
I0
sg48
I00
sg49
g50
sg56
g27
(g31
S'\xc7 f\xcc\x13\x8eC@'
p3510
tp3511
Rp3512
sg60
I00
sg61
g22
(S'\x07\xe1\n\x1e\t \x0b\x0c]9'
p3513
tp3514
Rp3515
sg65
g27
(g68
S'\x00\x02\x00\x00\x00\x00\x00\x00'
p3516
tp3517
Rp3518
sba(icoord
CoordRequest
p3519
(dp3520
g4
g5
sg6
g3074
sg8
g3075
sg20
Nsg21
g22
(S'\x07\xe1\n\x1e\t!)\r3\xfc'
p3521
tp3522
Rp3523
sg26
g27
(g31
S'b\xa5\x14{\xae\x80\x89@'
p3524
tp3525
Rp3526
sg37
g38
sg39
I0
sg40
I00
sg41
I0
sg42
g27
(g31
S'a2U0*\xa9#@'
p3527
tp3528
Rp3529
sg46
Nsg47
I0
sg48
I00
sg49
g50
sg56
g27
(g31
S'];\xc3{\x82\x83V@'
p3530
tp3531
Rp3532
sg60
I00
sg61
g22
(S'\x07\xe1\n\x1e\t \x0b\x0c]\xc5'
p3533
tp3534
Rp3535
sg65
g27
(g68
S'\x00\x02\x00\x00\x00\x00\x00\x00'
p3536
tp3537
Rp3538
sba(icoord
CoordRequest
p3539
(dp3540
g4
g5
sg6
g3074
sg8
g3075
sg20
Nsg21
g22
(S'\x07\xe1\n\x1e\x0b\x08.\x0c\xb8\xa8'
p3541
tp3542
Rp3543
sg26
g27
(g31
S'\xec\xca \xc3\x00\x94\x8b@'
p3544
tp3545
Rp3546
sg37
g38
sg39
I0
sg40
I00
sg41
I0
sg42
g27
(g31
S';\xdfO\x8d\x97n\x82@'
p3547
tp3548
Rp3549
sg46
Nsg47
I0
sg48
I00
sg49
g50
sg56
g27
(g31
S'\xabI\x03\xe3\x05\xa3\xb6@'
p3550
tp3551
Rp3552
sg60
I00
sg61
g22
(S'\x07\xe1\n\x1e\t \x0b\x0c^\xd5'
p3553
tp3554
Rp3555
sg65
g27
(g68
S'\x00x\x00\x00\x00\x00\x00\x00'
p3556
tp3557
Rp3558
sba(icoord
CoordRequest
p3559
(dp3560
g4
g5
sg6
g3074
sg8
g3075
sg20
Nsg21
g22
(S'\x07\xe1\n\x1e\t2\x0c\x08k,'
p3561
tp3562
Rp3563
sg26
g27
(g31
S'~\x02\x08w\x17\x1b|@'
p3564
tp3565
Rp3566
sg37
g38
sg39
I0
sg40
I00
sg41
I0
sg42
g27
(g31
S'\xfa~j\xbct\x93h@'
p3567
tp3568
Rp3569
sg46
Nsg47
I0
sg48
I00
sg49
g50
sg56
g27
(g31
S'\x9b\xa2\xd6\xa4\xf6\xe2\x90@'
p3570
tp3571
Rp3572
sg60
I00
sg61
g22
(S'\x07\xe1\n\x1e\t \x0b\x0c_m'
p3573
tp3574
Rp3575
sg65
g27
(g68
S'\x00(\x00\x00\x00\x00\x00\x00'
p3576
tp3577
Rp3578
sba(icoord
CoordRequest
p3579
(dp3580
g4
g5
sg6
g3074
sg8
g3075
sg20
Nsg21
g22
(S'\x07\xe1\n\x1e\t!"\x01\xdf\x06'
p3581
tp3582
Rp3583
sg26
g27
(g31
S'\xb7\x8e+\x85\x89\n\x87@'
p3584
tp3585
Rp3586
sg37
g38
sg39
I0
sg40
I00
sg41
I0
sg42
g27
(g31
S'a2U0*\xa9#@'
p3587
tp3588
Rp3589
sg46
Nsg47
I0
sg48
I00
sg49
g50
sg56
g27
(g31
S'\xd5\x0c\xdb\xa9\xf1\x93T@'
p3590
tp3591
Rp3592
sg60
I00
sg61
g22
(S'\x07\xe1\n\x1e\t \x0b\x0c_\xfd'
p3593
tp3594
Rp3595
sg65
g27
(g68
S'\x00\x02\x00\x00\x00\x00\x00\x00'
p3596
tp3597
Rp3598
sba(icoord
CoordRequest
p3599
(dp3600
g4
g5
sg6
g3074
sg8
g3075
sg20
Nsg21
g22
(S'\x07\xe1\n\x1e\t0*\n\xb0D'
p3601
tp3602
Rp3603
sg26
g27
(g31
S'P2(\xc9\xe0_\x8c@'
p3604
tp3605
Rp3606
sg37
g38
sg39
I0
sg40
I00
sg41
I0
sg42
g27
(g31
S'\xfa~j\xbct\x93X@'
p3607
tp3608
Rp3609
sg46
Nsg47
I0
sg48
I00
sg49
g50
sg56
g27
(g31
S'\xceM\xce\\\x1d\xf7\x8e@'
p3610
tp3611
Rp3612
sg60
I00
sg61
g22
(S'\x07\xe1\n\x1e\t \x0b\x0c`\x8b'
p3613
tp3614
Rp3615
sg65
g27
(g68
S'\x00\x14\x00\x00\x00\x00\x00\x00'
p3616
tp3617
Rp3618
sba(icoord
CoordRequest
p3619
(dp3620
g4
g5
sg6
g3074
sg8
g3075
sg20
Nsg21
g22
(S'\x07\xe1\n\x1e\t*\x1d\x07\xa3\xec'
p3621
tp3622
Rp3623
sg26
g27
(g31
S'IP\xf7\xd9T\xbd\xa7@'
p3624
tp3625
Rp3626
sg37
g38
sg39
I0
sg40
I00
sg41
I0
sg42
g27
(g31
S'\xaeG\xe1z\x14\xae3@'
p3627
tp3628
Rp3629
sg46
Nsg47
I0
sg48
I00
sg49
g50
sg56
g27
(g31
S'\xe5\xdc\xe3\xeb\x83M\x83@'
p3630
tp3631
Rp3632
sg60
I00
sg61
g22
(S'\x07\xe1\n\x1e\t \x0b\x0ca%'
p3633
tp3634
Rp3635
sg65
g27
(g68
S'\x01\x04\x00\x00\x00\x00\x00\x00'
p3636
tp3637
Rp3638
sba(icoord
CoordRequest
p3639
(dp3640
g4
g5
sg6
g3074
sg8
g3075
sg20
Nsg21
g22
(S'\x07\xe1\n\x1e\t!8\x03\xc4q'
p3641
tp3642
Rp3643
sg26
g27
(g31
S'RYL\xa8\xaf\xeaz@'
p3644
tp3645
Rp3646
sg37
g38
sg39
I0
sg40
I00
sg41
I0
sg42
g27
(g31
S'\xaeG\xe1z\x14\xae3@'
p3647
tp3648
Rp3649
sg46
Nsg47
I0
sg48
I00
sg49
g50
sg56
g27
(g31
S'\x1c5\xda>\xde\x1bZ@'
p3650
tp3651
Rp3652
sg60
I00
sg61
g22
(S'\x07\xe1\n\x1e\t \x0b\x0ca\xc1'
p3653
tp3654
Rp3655
sg65
g27
(g68
S'\x01\x04\x00\x00\x00\x00\x00\x00'
p3656
tp3657
Rp3658
sbasg54
g55
sbsg20
Nsg21
g22
(S'\x07\xe1\n\x1e\t \x1a\x0c\xbc\x89'
p3659
tp3660
Rp3661
sg26
g27
(g31
S'\xcc\xaaZ~akJ@'
p3662
tp3663
Rp3664
sg37
g38
sg39
I0
sg40
I00
sg41
I0
sg42
g27
(g31
S'a2U0*\xa9#@'
p3665
tp3666
Rp3667
sg46
Nsg47
I0
sg48
I00
sg49
g50
sg56
g27
(g31
S'\xe0HKe\xa2\x0c.@'
p3668
tp3669
Rp3670
sg60
I00
sg61
g22
(S'\x07\xe1\n\x1e\t \x0b\x0c\\%'
p3671
tp3672
Rp3673
sg65
g27
(g68
S'\x00\x02\x00\x00\x00\x00\x00\x00'
p3674
tp3675
Rp3676
sbaa(lp3677
g454
ag1059
ag1664
ag2269
ag2874
ag3479
aa(lp3678
g474
ag1079
ag1684
ag2289
ag2894
ag3499
aa(lp3679
g494
ag1099
ag1704
ag2309
ag2914
ag3519
aa(lp3680
g514
ag1119
ag1724
ag2329
ag2934
ag3539
aa(lp3681
g534
ag1139
ag1744
ag2349
ag2954
ag3559
aa(lp3682
g554
ag1159
ag1764
ag2369
ag2974
ag3579
aa(lp3683
g574
ag1179
ag1784
ag2389
ag2994
ag3599
aa(lp3684
g594
ag1199
ag1804
ag2409
ag3014
ag3619
aa(lp3685
g614
ag1219
ag1824
ag2429
ag3034
ag3639
aa.