(lp0
(lp1
(icoord
CoordRequest
p2
(dp3
S'description'
p4
S''
p5
sS'src'
p6
S'wash-192'
p7
sS'src_dtn'
p8
(icoord
DTN
p9
(dp10
S'bias_fun'
p11
NsS'name'
p12
g7
sS'ip'
p13
S'192.168.120.192'
p14
sS'current_request'
p15
NsS'bias_args'
p16
NsS'current_request_index'
p17
I-1
sS'requests'
p18
(lp19
g2
a(icoord
CoordRequest
p20
(dp21
g4
g5
sg6
g7
sg8
g9
sS'start_time'
p22
NsS'deadline_datetime'
p23
cdatetime
datetime
p24
(S'\x07\xe1\n\x1e\x0c\x07(\x07\x17\xcf'
p25
tp26
Rp27
sS'delay_ratio'
p28
cnumpy.core.multiarray
scalar
p29
(cnumpy
dtype
p30
(S'f8'
p31
I0
I1
tp32
Rp33
(I3
S'<'
p34
NNNI-1
I-1
I0
tp35
bS'\xbe\xb7\xd4@v\x8b\x92@'
p36
tp37
Rp38
sS'dst'
p39
S'scinet-dtn'
p40
sS'max_rate'
p41
I0
sS'completed'
p42
I00
sS'ts'
p43
I0
sS'min_duration'
p44
g29
(g33
S';\xdfO\x8d\x97n\x82@'
p45
tp46
Rp47
sS'coordinator'
p48
NsS'percent_completion'
p49
I0
sS'completed_ontime'
p50
I00
sS'dst_dtn'
p51
(icoord
DTN
p52
(dp53
g11
Nsg12
g40
sg13
S'192.168.120.37'
p54
sg15
Nsg16
Nsg17
I-1
sg18
(lp55
sS'port'
p56
S'eth1'
p57
sbsS'td'
p58
g29
(g33
S'3\xb2<\xd0=\xa6\xbd@'
p59
tp60
Rp61
sS'accepted'
p62
I00
sS'received_datetime'
p63
g24
(S'\x07\xe1\n\x1e\n\x01\n\x03h\x9c'
p64
tp65
Rp66
sS'size'
p67
g29
(g30
(S'i8'
p68
I0
I1
tp69
Rp70
(I3
S'<'
p71
NNNI-1
I-1
I0
tp72
bS'\x00x\x00\x00\x00\x00\x00\x00'
p73
tp74
Rp75
sba(icoord
CoordRequest
p76
(dp77
g4
g5
sg6
g7
sg8
g9
sg22
Nsg23
g24
(S'\x07\xe1\n\x1e\n\x02\n\n\t\x03'
p78
tp79
Rp80
sg28
g29
(g33
S'\x92\r\xffn$\x16\x80@'
p81
tp82
Rp83
sg39
g40
sg41
I0
sg42
I00
sg43
I0
sg44
g29
(g33
S'a2U0*\xa9#@'
p84
tp85
Rp86
sg48
Nsg49
I0
sg50
I00
sg51
g52
sg58
g29
(g33
S'\x1cj\xfa\xa9\x917N@'
p87
tp88
Rp89
sg62
I00
sg63
g24
(S'\x07\xe1\n\x1e\n\x01\n\x03i.'
p90
tp91
Rp92
sg67
g29
(g70
S'\x00\x02\x00\x00\x00\x00\x00\x00'
p93
tp94
Rp95
sba(icoord
CoordRequest
p96
(dp97
g4
g5
sg6
g7
sg8
g9
sg22
Nsg23
g24
(S'\x07\xe1\n\x1e\n\x1e\r\x01C\xe3'
p98
tp99
Rp100
sg28
g29
(g33
S'h3\x90\xd4\x9d\xaf~@'
p101
tp102
Rp103
sg39
g40
sg41
I0
sg42
I00
sg43
I0
sg44
g29
(g33
S';\xdfO\x8d\x97nr@'
p104
tp105
Rp106
sg48
Nsg49
I0
sg50
I00
sg51
g52
sg58
g29
(g33
S'$\xf6\n\xdco;\x9b@'
p107
tp108
Rp109
sg62
I00
sg63
g24
(S'\x07\xe1\n\x1e\n\x01\n\x03i\xbd'
p110
tp111
Rp112
sg67
g29
(g70
S'\x00<\x00\x00\x00\x00\x00\x00'
p113
tp114
Rp115
sba(icoord
CoordRequest
p116
(dp117
g4
g5
sg6
g7
sg8
g9
sg22
Nsg23
g24
(S'\x07\xe1\n\x1e\n\x07\x0e\x01\xb8I'
p118
tp119
Rp120
sg28
g29
(g33
S'\xda\x1c\xc9j\x93c7@'
p121
tp122
Rp123
sg39
g40
sg41
I0
sg42
I00
sg43
I0
sg44
g29
(g33
S';\xdfO\x8d\x97nr@'
p124
tp125
Rp126
sg48
Nsg49
I0
sg50
I00
sg51
g52
sg58
g29
(g33
S'\xfd\x04\xb4\xd38\xbev@'
p127
tp128
Rp129
sg62
I00
sg63
g24
(S'\x07\xe1\n\x1e\n\x01\n\x03j_'
p130
tp131
Rp132
sg67
g29
(g70
S'\x00<\x00\x00\x00\x00\x00\x00'
p133
tp134
Rp135
sba(icoord
CoordRequest
p136
(dp137
g4
g5
sg6
g7
sg8
g9
sg22
Nsg23
g24
(S'\x07\xe1\n\x1e\n;\x04\n\xcee'
p138
tp139
Rp140
sg28
g29
(g33
S'\xf5\x88^/\xdb\x0c\x9a@'
p141
tp142
Rp143
sg39
g40
sg41
I0
sg42
I00
sg43
I0
sg44
g29
(g33
S'\xfa~j\xbct\x93h@'
p144
tp145
Rp146
sg48
Nsg49
I0
sg50
I00
sg51
g52
sg58
g29
(g33
S's?q\xe8\xf7$\xab@'
p147
tp148
Rp149
sg62
I00
sg63
g24
(S'\x07\xe1\n\x1e\n\x01\n\x03k\x02'
p150
tp151
Rp152
sg67
g29
(g70
S'\x00(\x00\x00\x00\x00\x00\x00'
p153
tp154
Rp155
sba(icoord
CoordRequest
p156
(dp157
g4
g5
sg6
g7
sg8
g9
sg22
Nsg23
g24
(S'\x07\xe1\n\x1e\n\x1c\r\x0ea\xf3'
p158
tp159
Rp160
sg28
g29
(g33
S'\x1d%\xa9Y\xed\xae\x86@'
p161
tp162
Rp163
sg39
g40
sg41
I0
sg42
I00
sg43
I0
sg44
g29
(g33
S'\xfa~j\xbct\x93h@'
p164
tp165
Rp166
sg48
Nsg49
I0
sg50
I00
sg51
g52
sg58
g29
(g33
S'\xb7\xeb\x80\xa8\xdf^\x99@'
p167
tp168
Rp169
sg62
I00
sg63
g24
(S'\x07\xe1\n\x1e\n\x01\n\x03k\xa3'
p170
tp171
Rp172
sg67
g29
(g70
S'\x00(\x00\x00\x00\x00\x00\x00'
p173
tp174
Rp175
sba(icoord
CoordRequest
p176
(dp177
g4
g5
sg6
g7
sg8
g9
sg22
Nsg23
g24
(S'\x07\xe1\n\x1e\n\t\x0c\x06U\x82'
p178
tp179
Rp180
sg28
g29
(g33
S'\xda}\xd2\x7fj\xc0O@'
p181
tp182
Rp183
sg39
g40
sg41
I0
sg42
I00
sg43
I0
sg44
g29
(g33
S';\xdfO\x8d\x97nr@'
p184
tp185
Rp186
sg48
Nsg49
I0
sg50
I00
sg51
g52
sg58
g29
(g33
S':\xdc\x9e \r#~@'
p187
tp188
Rp189
sg62
I00
sg63
g24
(S'\x07\xe1\n\x1e\n\x01\n\x03l\x91'
p190
tp191
Rp192
sg67
g29
(g70
S'\x00<\x00\x00\x00\x00\x00\x00'
p193
tp194
Rp195
sba(icoord
CoordRequest
p196
(dp197
g4
g5
sg6
g7
sg8
g9
sg22
Nsg23
g24
(S'\x07\xe1\n\x1e\x0e\x1a#\x0e\xeb\xc8'
p198
tp199
Rp200
sg28
g29
(g33
S'x\xa3\xe8\xdc+P\xa4@'
p201
tp202
Rp203
sg39
g40
sg41
I0
sg42
I00
sg43
I0
sg44
g29
(g33
S';\xdfO\x8d\x97n\x82@'
p204
tp205
Rp206
sg48
Nsg49
I0
sg50
I00
sg51
g52
sg58
g29
(g33
S'\xcd\xe6)l\xe0\x1a\xcf@'
p207
tp208
Rp209
sg62
I00
sg63
g24
(S'\x07\xe1\n\x1e\n\x01\n\x03m3'
p210
tp211
Rp212
sg67
g29
(g70
S'\x00x\x00\x00\x00\x00\x00\x00'
p213
tp214
Rp215
sba(icoord
CoordRequest
p216
(dp217
g4
g5
sg6
g7
sg8
g9
sg22
Nsg23
g24
(S'\x07\xe1\n\x1e\n\x01\x16\x07\xc3K'
p218
tp219
Rp220
sg28
g29
(g33
S'\x03\xb7\x00vh\xfdx@'
p221
tp222
Rp223
sg39
g40
sg41
I0
sg42
I00
sg43
I0
sg44
g29
(g33
S'a2U0*\xa9\x03@'
p224
tp225
Rp226
sg48
Nsg49
I0
sg50
I00
sg51
g52
sg58
g29
(g33
S'x.\\\xe8j\x91(@'
p227
tp228
Rp229
sg62
I00
sg63
g24
(S'\x07\xe1\n\x1e\n\x01\n\x03m\xd8'
p230
tp231
Rp232
sg67
g29
(g70
S'\x80\x00\x00\x00\x00\x00\x00\x00'
p233
tp234
Rp235
sbasg56
g57
sbsg22
Nsg23
g24
(S'\x07\xe1\n\x1e\n\x063\x00\xab\xff'
p236
tp237
Rp238
sg28
g29
(g33
S'_\xca\xf2\x91mVR@'
p239
tp240
Rp241
sg39
g40
sg41
I0
sg42
I00
sg43
I0
sg44
g29
(g33
S'\xfa~j\xbct\x93h@'
p242
tp243
Rp244
sg48
Nsg49
I0
sg50
I00
sg51
g52
sg58
g29
(g33
S'\xe4l\xf9\x1c"Mu@'
p245
tp246
Rp247
sg62
I00
sg63
g24
(S'\x07\xe1\n\x1e\n\x01\n\x03g\xe3'
p248
tp249
Rp250
sg67
g29
(g70
S'\x00(\x00\x00\x00\x00\x00\x00'
p251
tp252
Rp253
sba(icoord
CoordRequest
p254
(dp255
g4
g5
sg6
S'cern-194'
p256
sg8
(icoord
DTN
p257
(dp258
g11
Nsg12
g256
sg13
S'192.168.120.194'
p259
sg15
Nsg16
Nsg17
I-1
sg18
(lp260
g254
a(icoord
CoordRequest
p261
(dp262
g4
g5
sg6
g256
sg8
g257
sg22
Nsg23
g24
(S'\x07\xe1\n\x1e\n\x02\x14\x00\xcdR'
p263
tp264
Rp265
sg28
g29
(g33
S'.\xd9\xd9\x00\xb6\x12\x83@'
p266
tp267
Rp268
sg39
g40
sg41
I0
sg42
I00
sg43
I0
sg44
g29
(g33
S'a2U0*\xa9#@'
p269
tp270
Rp271
sg48
Nsg49
I0
sg50
I00
sg51
g52
sg58
g29
(g33
S'\x19-8\xd4\x10uQ@'
p272
tp273
Rp274
sg62
I00
sg63
g24
(S'\x07\xe1\n\x1e\n\x01\n\x03h\xb2'
p275
tp276
Rp277
sg67
g29
(g70
S'\x00\x02\x00\x00\x00\x00\x00\x00'
p278
tp279
Rp280
sba(icoord
CoordRequest
p281
(dp282
g4
g5
sg6
g256
sg8
g257
sg22
Nsg23
g24
(S'\x07\xe1\n\x1e\n\x16\x1c\x068s'
p283
tp284
Rp285
sg28
g29
(g33
S'\x86\xbau\xb5\x97\xd6t@'
p286
tp287
Rp288
sg39
g40
sg41
I0
sg42
I00
sg43
I0
sg44
g29
(g33
S';\xdfO\x8d\x97nr@'
p289
tp290
Rp291
sg48
Nsg49
I0
sg50
I00
sg51
g52
sg58
g29
(g33
S'\xde\xd5l\x87\xbc\xf8\x93@'
p292
tp293
Rp294
sg62
I00
sg63
g24
(S'\x07\xe1\n\x1e\n\x01\n\x03iE'
p295
tp296
Rp297
sg67
g29
(g70
S'\x00<\x00\x00\x00\x00\x00\x00'
p298
tp299
Rp300
sba(icoord
CoordRequest
p301
(dp302
g4
g5
sg6
g256
sg8
g257
sg22
Nsg23
g24
(S'\x07\xe1\n\x1e\n\x01\r\x02\xf2\xc6'
p303
tp304
Rp305
sg28
g29
(g33
S'\x03o\xaf\x92w\xd44@'
p306
tp307
Rp308
sg39
g40
sg41
I0
sg42
I00
sg43
I0
sg44
g29
(g33
S'a2U0*\xa9\x03@'
p309
tp310
Rp311
sg48
Nsg49
I0
sg50
I00
sg51
g52
sg58
g29
(g33
S'\xb0V\x81\x0b\x92\xc1\x07@'
p312
tp313
Rp314
sg62
I00
sg63
g24
(S'\x07\xe1\n\x1e\n\x01\n\x03i\xd9'
p315
tp316
Rp317
sg67
g29
(g70
S'\x80\x00\x00\x00\x00\x00\x00\x00'
p318
tp319
Rp320
sba(icoord
CoordRequest
p321
(dp322
g4
g5
sg6
g256
sg8
g257
sg22
Nsg23
g24
(S'\x07\xe1\n\x1e\n\x02\x0b\x05A\xd9'
p323
tp324
Rp325
sg28
g29
(g33
S'\xfb\xc3\xeaR\x03N\x80@'
p326
tp327
Rp328
sg39
g40
sg41
I0
sg42
I00
sg43
I0
sg44
g29
(g33
S'a2U0*\xa9#@'
p329
tp330
Rp331
sg48
Nsg49
I0
sg50
I00
sg51
g52
sg58
g29
(g33
S'3\xd9M*r\x8fN@'
p332
tp333
Rp334
sg62
I00
sg63
g24
(S'\x07\xe1\n\x1e\n\x01\n\x03jy'
p335
tp336
Rp337
sg67
g29
(g70
S'\x00\x02\x00\x00\x00\x00\x00\x00'
p338
tp339
Rp340
sba(icoord
CoordRequest
p341
(dp342
g4
g5
sg6
g256
sg8
g257
sg22
Nsg23
g24
(S'\x07\xe1\n\x1e\x0b\n$\x00+9'
p343
tp344
Rp345
sg28
g29
(g33
S'\x90\x88\x07\xd55\xf2\x82@'
p346
tp347
Rp348
sg39
g40
sg41
I0
sg42
I00
sg43
I0
sg44
g29
(g33
S';\xdfO\x8d\x97n\x82@'
p349
tp350
Rp351
sg48
Nsg49
I0
sg50
I00
sg51
g52
sg58
g29
(g33
S'h\xb8:{\xc9E\xb0@'
p352
tp353
Rp354
sg62
I00
sg63
g24
(S'\x07\xe1\n\x1e\n\x01\n\x03k\x1c'
p355
tp356
Rp357
sg67
g29
(g70
S'\x00x\x00\x00\x00\x00\x00\x00'
p358
tp359
Rp360
sba(icoord
CoordRequest
p361
(dp362
g4
g5
sg6
g256
sg8
g257
sg22
Nsg23
g24
(S'\x07\xe1\n\x1e\x0c\x06\x1c\x0c,p'
p363
tp364
Rp365
sg28
g29
(g33
S'\x14\x91n\xeb\xdbZ\x92@'
p366
tp367
Rp368
sg39
g40
sg41
I0
sg42
I00
sg43
I0
sg44
g29
(g33
S';\xdfO\x8d\x97n\x82@'
p369
tp370
Rp371
sg48
Nsg49
I0
sg50
I00
sg51
g52
sg58
g29
(g33
S'\xc6\xf6\x93\xd8\x92^\xbd@'
p372
tp373
Rp374
sg62
I00
sg63
g24
(S'\x07\xe1\n\x1e\n\x01\n\x03k\xbf'
p375
tp376
Rp377
sg67
g29
(g70
S'\x00x\x00\x00\x00\x00\x00\x00'
p378
tp379
Rp380
sba(icoord
CoordRequest
p381
(dp382
g4
g5
sg6
g256
sg8
g257
sg22
Nsg23
g24
(S'\x07\xe1\n\x1e\n\r\n\x0c2q'
p383
tp384
Rp385
sg28
g29
(g33
S'~$|r\xea\xd2\xab@'
p386
tp387
Rp388
sg39
g40
sg41
I0
sg42
I00
sg43
I0
sg44
g29
(g33
S'\xaeG\xe1z\x14\xae3@'
p389
tp390
Rp391
sg48
Nsg49
I0
sg50
I00
sg51
g52
sg58
g29
(g33
S'P\xad_m\x99\x84\x86@'
p392
tp393
Rp394
sg62
I00
sg63
g24
(S'\x07\xe1\n\x1e\n\x01\n\x03l\xad'
p395
tp396
Rp397
sg67
g29
(g70
S'\x01\x04\x00\x00\x00\x00\x00\x00'
p398
tp399
Rp400
sba(icoord
CoordRequest
p401
(dp402
g4
g5
sg6
g256
sg8
g257
sg22
Nsg23
g24
(S'\x07\xe1\n\x1e\n\x0b+\x00\x8b\xac'
p403
tp404
Rp405
sg28
g29
(g33
S'\xb9p\xbc/\xa9\xbbk@'
p406
tp407
Rp408
sg39
g40
sg41
I0
sg42
I00
sg43
I0
sg44
g29
(g33
S'\xfa~j\xbct\x93h@'
p409
tp410
Rp411
sg48
Nsg49
I0
sg50
I00
sg51
g52
sg58
g29
(g33
S'N \xf2C}\xc6\x83@'
p412
tp413
Rp414
sg62
I00
sg63
g24
(S'\x07\xe1\n\x1e\n\x01\n\x03mO'
p415
tp416
Rp417
sg67
g29
(g70
S'\x00(\x00\x00\x00\x00\x00\x00'
p418
tp419
Rp420
sba(icoord
CoordRequest
p421
(dp422
g4
g5
sg6
g256
sg8
g257
sg22
Nsg23
g24
(S'\x07\xe1\n\x1e\n*/\x07n>'
p423
tp424
Rp425
sg28
g29
(g33
S'=Q\x7f\xdfAV\x87@'
p426
tp427
Rp428
sg39
g40
sg41
I0
sg42
I00
sg43
I0
sg44
g29
(g33
S';\xdfO\x8d\x97nr@'
p429
tp430
Rp431
sg48
Nsg49
I0
sg50
I00
sg51
g52
sg58
g29
(g33
S'\xacHTA\x86\x82\xa3@'
p432
tp433
Rp434
sg62
I00
sg63
g24
(S'\x07\xe1\n\x1e\n\x01\n\x03m\xf5'
p435
tp436
Rp437
sg67
g29
(g70
S'\x00<\x00\x00\x00\x00\x00\x00'
p438
tp439
Rp440
sbasg56
g57
sbsg22
Nsg23
g24
(S'\x07\xe1\n\x1e\n\x08\x1a\x07\x0e5'
p441
tp442
Rp443
sg28
g29
(g33
S'\xca\xff\xd7\x15?|u@'
p444
tp445
Rp446
sg39
g40
sg41
I0
sg42
I00
sg43
I0
sg44
g29
(g33
S'\xfa~j\xbct\x93X@'
p447
tp448
Rp449
sg48
Nsg49
I0
sg50
I00
sg51
g52
sg58
g29
(g33
S'\xc8e\xf7\x84\xd3C{@'
p450
tp451
Rp452
sg62
I00
sg63
g24
(S'\x07\xe1\n\x1e\n\x01\n\x03h\x11'
p453
tp454
Rp455
sg67
g29
(g70
S'\x00\x14\x00\x00\x00\x00\x00\x00'
p456
tp457
Rp458
sba(icoord
CoordRequest
p459
(dp460
g4
g5
sg6
S'amst-190'
p461
sg8
(icoord
DTN
p462
(dp463
g11
Nsg12
g461
sg13
S'192.168.120.190'
p464
sg15
Nsg16
Nsg17
I-1
sg18
(lp465
g459
a(icoord
CoordRequest
p466
(dp467
g4
g5
sg6
g461
sg8
g462
sg22
Nsg23
g24
(S'\x07\xe1\n\x1e\n"4\x02\xc1\xae'
p468
tp469
Rp470
sg28
g29
(g33
S'G2\x83\xe9\xd1Yn@'
p471
tp472
Rp473
sg39
g40
sg41
I0
sg42
I00
sg43
I0
sg44
g29
(g33
S';\xdfO\x8d\x97n\x82@'
p474
tp475
Rp476
sg48
Nsg49
I0
sg50
I00
sg51
g52
sg58
g29
(g33
S'*\xf4\xa00\xd4\x97\x9f@'
p477
tp478
Rp479
sg62
I00
sg63
g24
(S'\x07\xe1\n\x1e\n\x01\n\x03h\xcd'
p480
tp481
Rp482
sg67
g29
(g70
S'\x00x\x00\x00\x00\x00\x00\x00'
p483
tp484
Rp485
sba(icoord
CoordRequest
p486
(dp487
g4
g5
sg6
g461
sg8
g462
sg22
Nsg23
g24
(S'\x07\xe1\n\x1e\x0b%2\x07Yo'
p488
tp489
Rp490
sg28
g29
(g33
S'b\xfa\xd6~\x1a\x9b\x8b@'
p491
tp492
Rp493
sg39
g40
sg41
I0
sg42
I00
sg43
I0
sg44
g29
(g33
S';\xdfO\x8d\x97n\x82@'
p494
tp495
Rp496
sg48
Nsg49
I0
sg50
I00
sg51
g52
sg58
g29
(g33
S'\xbc\xea\xac\x10B\xa8\xb6@'
p497
tp498
Rp499
sg62
I00
sg63
g24
(S'\x07\xe1\n\x1e\n\x01\n\x03i\\'
p500
tp501
Rp502
sg67
g29
(g70
S'\x00x\x00\x00\x00\x00\x00\x00'
p503
tp504
Rp505
sba(icoord
CoordRequest
p506
(dp507
g4
g5
sg6
g461
sg8
g462
sg22
Nsg23
g24
(S'\x07\xe1\n\x1e\n\x01\x16\x05^\x98'
p508
tp509
Rp510
sg28
g29
(g33
S'=\x9e\xdb\xd4\xf0\x97x@'
p511
tp512
Rp513
sg39
g40
sg41
I0
sg42
I00
sg43
I0
sg44
g29
(g33
S'a2U0*\xa9\x03@'
p514
tp515
Rp516
sg48
Nsg49
I0
sg50
I00
sg51
g52
sg58
g29
(g33
S'OCg\xd7\x9eA(@'
p517
tp518
Rp519
sg62
I00
sg63
g24
(S'\x07\xe1\n\x1e\n\x01\n\x03i\xf3'
p520
tp521
Rp522
sg67
g29
(g70
S'\x80\x00\x00\x00\x00\x00\x00\x00'
p523
tp524
Rp525
sba(icoord
CoordRequest
p526
(dp527
g4
g5
sg6
g461
sg8
g462
sg22
Nsg23
g24
(S'\x07\xe1\n\x1e\n1%\x0e\xa6\x87'
p528
tp529
Rp530
sg28
g29
(g33
S'D7\xeb\xf5\xcd\x8b\x95@'
p531
tp532
Rp533
sg39
g40
sg41
I0
sg42
I00
sg43
I0
sg44
g29
(g33
S'\xfa~j\xbct\x93h@'
p534
tp535
Rp536
sg48
Nsg49
I0
sg50
I00
sg51
g52
sg58
g29
(g33
S'2[\x06\xf5x\xb7\xa6@'
p537
tp538
Rp539
sg62
I00
sg63
g24
(S'\x07\xe1\n\x1e\n\x01\n\x03j\x93'
p540
tp541
Rp542
sg67
g29
(g70
S'\x00(\x00\x00\x00\x00\x00\x00'
p543
tp544
Rp545
sba(icoord
CoordRequest
p546
(dp547
g4
g5
sg6
g461
sg8
g462
sg22
Nsg23
g24
(S'\x07\xe1\n\x1e\n\x03(\x08\xe5\x17'
p548
tp549
Rp550
sg28
g29
(g33
S'$\x89_T\x1eV\x96@'
p551
tp552
Rp553
sg39
g40
sg41
I0
sg42
I00
sg43
I0
sg44
g29
(g33
S'a2U0*\xa9#@'
p554
tp555
Rp556
sg48
Nsg49
I0
sg50
I00
sg51
g52
sg58
g29
(g33
S"n\x98'\xf1{\xcbb@"
p557
tp558
Rp559
sg62
I00
sg63
g24
(S'\x07\xe1\n\x1e\n\x01\n\x03k7'
p560
tp561
Rp562
sg67
g29
(g70
S'\x00\x02\x00\x00\x00\x00\x00\x00'
p563
tp564
Rp565
sba(icoord
CoordRequest
p566
(dp567
g4
g5
sg6
g461
sg8
g462
sg22
Nsg23
g24
(S'\x07\xe1\n\x1e\n\x01\x16\x00eW'
p568
tp569
Rp570
sg28
g29
(g33
S'\xda\xaa\xf26j\xc3w@'
p571
tp572
Rp573
sg39
g40
sg41
I0
sg42
I00
sg43
I0
sg44
g29
(g33
S'a2U0*\xa9\x03@'
p574
tp575
Rp576
sg48
Nsg49
I0
sg50
I00
sg51
g52
sg58
g29
(g33
S"`P\xa7\xbc{\x9a'@"
p577
tp578
Rp579
sg62
I00
sg63
g24
(S'\x07\xe1\n\x1e\n\x01\n\x03k\xda'
p580
tp581
Rp582
sg67
g29
(g70
S'\x80\x00\x00\x00\x00\x00\x00\x00'
p583
tp584
Rp585
sba(icoord
CoordRequest
p586
(dp587
g4
g5
sg6
g461
sg8
g462
sg22
Nsg23
g24
(S'\x07\xe1\n\x1e\n\x03\t\tqV'
p588
tp589
Rp590
sg28
g29
(g33
S'\xc1\x08\xe7vIt5@'
p591
tp592
Rp593
sg39
g40
sg41
I0
sg42
I00
sg43
I0
sg44
g29
(g33
S'\xfa~j\xbct\x93X@'
p594
tp595
Rp596
sg48
Nsg49
I0
sg50
I00
sg51
g52
sg58
g29
(g33
S'|\x89\xdc\x8d=\xd9]@'
p597
tp598
Rp599
sg62
I00
sg63
g24
(S'\x07\xe1\n\x1e\n\x01\n\x03l\xc8'
p600
tp601
Rp602
sg67
g29
(g70
S'\x00\x14\x00\x00\x00\x00\x00\x00'
p603
tp604
Rp605
sba(icoord
CoordRequest
p606
(dp607
g4
g5
sg6
g461
sg8
g462
sg22
Nsg23
g24
(S'\x07\xe1\n\x1e\n\x087\x0b\xb7\xc4'
p608
tp609
Rp610
sg28
g29
(g33
S'\xea\xb2Og\xc0\x1b\xb2@'
p611
tp612
Rp613
sg39
g40
sg41
I0
sg42
I00
sg43
I0
sg44
g29
(g33
S'a2U0*\xa9#@'
p614
tp615
Rp616
sg48
Nsg49
I0
sg50
I00
sg51
g52
sg58
g29
(g33
S'\xe7els\xb1\x18}@'
p617
tp618
Rp619
sg62
I00
sg63
g24
(S'\x07\xe1\n\x1e\n\x01\n\x03mi'
p620
tp621
Rp622
sg67
g29
(g70
S'\x00\x02\x00\x00\x00\x00\x00\x00'
p623
tp624
Rp625
sba(icoord
CoordRequest
p626
(dp627
g4
g5
sg6
g461
sg8
g462
sg22
Nsg23
g24
(S'\x07\xe1\n\x1e\x0e\x1b7\x05\x92\x9f'
p628
tp629
Rp630
sg28
g29
(g33
S'\x0bL[\x1b\x17k\xa4@'
p631
tp632
Rp633
sg39
g40
sg41
I0
sg42
I00
sg43
I0
sg44
g29
(g33
S';\xdfO\x8d\x97n\x82@'
p634
tp635
Rp636
sg48
Nsg49
I0
sg50
I00
sg51
g52
sg58
g29
(g33
S'\xea\x03\xa5\xf9\x91B\xcf@'
p637
tp638
Rp639
sg62
I00
sg63
g24
(S'\x07\xe1\n\x1e\n\x01\n\x03n\x10'
p640
tp641
Rp642
sg67
g29
(g70
S'\x00x\x00\x00\x00\x00\x00\x00'
p643
tp644
Rp645
sbasg56
g57
sbsg22
Nsg23
g24
(S'\x07\xe1\n\x1e\x0b!0\x08V\x96'
p646
tp647
Rp648
sg28
g29
(g33
S'\xab\xa2\x0eS\xf5R\x8a@'
p649
tp650
Rp651
sg39
g40
sg41
I0
sg42
I00
sg43
I0
sg44
g29
(g33
S';\xdfO\x8d\x97n\x82@'
p652
tp653
Rp654
sg48
Nsg49
I0
sg50
I00
sg51
g52
sg58
g29
(g33
S'\x84\x99\x8e\xbbR\xb6\xb5@'
p655
tp656
Rp657
sg62
I00
sg63
g24
(S'\x07\xe1\n\x1e\n\x01\n\x03h0'
p658
tp659
Rp660
sg67
g29
(g70
S'\x00x\x00\x00\x00\x00\x00\x00'
p661
tp662
Rp663
sba(icoord
CoordRequest
p664
(dp665
g4
g5
sg6
S'aofa-191'
p666
sg8
(icoord
DTN
p667
(dp668
g11
Nsg12
g666
sg13
S'192.168.120.191'
p669
sg15
Nsg16
Nsg17
I-1
sg18
(lp670
g664
a(icoord
CoordRequest
p671
(dp672
g4
g5
sg6
g666
sg8
g667
sg22
Nsg23
g24
(S'\x07\xe1\n\x1e\n)\x18\x02\xa8<'
p673
tp674
Rp675
sg28
g29
(g33
S'\n\xc4\x8c\xfa1\x9f\x91@'
p676
tp677
Rp678
sg39
g40
sg41
I0
sg42
I00
sg43
I0
sg44
g29
(g33
S'\xfa~j\xbct\x93h@'
p679
tp680
Rp681
sg48
Nsg49
I0
sg50
I00
sg51
g52
sg58
g29
(g33
S'\x1f\x05j\xbf\xe6\xdb\xa2@'
p682
tp683
Rp684
sg62
I00
sg63
g24
(S'\x07\xe1\n\x1e\n\x01\n\x03h\xe5'
p685
tp686
Rp687
sg67
g29
(g70
S'\x00(\x00\x00\x00\x00\x00\x00'
p688
tp689
Rp690
sba(icoord
CoordRequest
p691
(dp692
g4
g5
sg6
g666
sg8
g667
sg22
Nsg23
g24
(S'\x07\xe1\n\x1e\x0b\n#\r\x0fQ'
p693
tp694
Rp695
sg28
g29
(g33
S'\x96bz\x19\x00\xf2\x82@'
p696
tp697
Rp698
sg39
g40
sg41
I0
sg42
I00
sg43
I0
sg44
g29
(g33
S';\xdfO\x8d\x97n\x82@'
p699
tp700
Rp701
sg48
Nsg49
I0
sg50
I00
sg51
g52
sg58
g29
(g33
S'\nV\x89\xdd\xa1E\xb0@'
p702
tp703
Rp704
sg62
I00
sg63
g24
(S'\x07\xe1\n\x1e\n\x01\n\x03ir'
p705
tp706
Rp707
sg67
g29
(g70
S'\x00x\x00\x00\x00\x00\x00\x00'
p708
tp709
Rp710
sba(icoord
CoordRequest
p711
(dp712
g4
g5
sg6
g666
sg8
g667
sg22
Nsg23
g24
(S'\x07\xe1\n\x1e\x0b%9\t\x02\x11'
p713
tp714
Rp715
sg28
g29
(g33
S'\x82\x822\xbc\xbe4\x9d@'
p716
tp717
Rp718
sg39
g40
sg41
I0
sg42
I00
sg43
I0
sg44
g29
(g33
S';\xdfO\x8d\x97nr@'
p719
tp720
Rp721
sg48
Nsg49
I0
sg50
I00
sg51
g52
sg58
g29
(g33
S'H\xbdP\xd9]\xaf\xb6@'
p722
tp723
Rp724
sg62
I00
sg63
g24
(S'\x07\xe1\n\x1e\n\x01\n\x03j\x0c'
p725
tp726
Rp727
sg67
g29
(g70
S'\x00<\x00\x00\x00\x00\x00\x00'
p728
tp729
Rp730
sba(icoord
CoordRequest
p731
(dp732
g4
g5
sg6
g666
sg8
g667
sg22
Nsg23
g24
(S'\x07\xe1\n\x1e\n\x02%\x0cB\xef'
p733
tp734
Rp735
sg28
g29
(g33
S' \x80\xc3\xecK\x90u@'
p736
tp737
Rp738
sg39
g40
sg41
I0
sg42
I00
sg43
I0
sg44
g29
(g33
S'\xaeG\xe1z\x14\xae3@'
p739
tp740
Rp741
sg48
Nsg49
I0
sg50
I00
sg51
g52
sg58
g29
(g33
S'\xeco\xb9\xf3\x18\xe5U@'
p742
tp743
Rp744
sg62
I00
sg63
g24
(S'\x07\xe1\n\x1e\n\x01\n\x03j\xaf'
p745
tp746
Rp747
sg67
g29
(g70
S'\x01\x04\x00\x00\x00\x00\x00\x00'
p748
tp749
Rp750
sba(icoord
CoordRequest
p751
(dp752
g4
g5
sg6
g666
sg8
g667
sg22
Nsg23
g24
(S'\x07\xe1\n\x1e\n\x02\x1e\x0f$\xf0'
p753
tp754
Rp755
sg28
g29
(g33
S'P\xc0\xf5K\xf3\x8c\x86@'
p756
tp757
Rp758
sg39
g40
sg41
I0
sg42
I00
sg43
I0
sg44
g29
(g33
S'a2U0*\xa9#@'
p759
tp760
Rp761
sg48
Nsg49
I0
sg50
I00
sg51
g52
sg58
g29
(g33
S'\x97R\xee\xb2-1T@'
p762
tp763
Rp764
sg62
I00
sg63
g24
(S'\x07\xe1\n\x1e\n\x01\n\x03kR'
p765
tp766
Rp767
sg67
g29
(g70
S'\x00\x02\x00\x00\x00\x00\x00\x00'
p768
tp769
Rp770
sba(icoord
CoordRequest
p771
(dp772
g4
g5
sg6
g666
sg8
g667
sg22
Nsg23
g24
(S'\x07\xe1\n\x1e\n\x144\x0c\xee:'
p773
tp774
Rp775
sg28
g29
(g33
S'Gb\xb2\x10\x1b<\x91@'
p776
tp777
Rp778
sg39
g40
sg41
I0
sg42
I00
sg43
I0
sg44
g29
(g33
S'\xfa~j\xbct\x93X@'
p779
tp780
Rp781
sg48
Nsg49
I0
sg50
I00
sg51
g52
sg58
g29
(g33
S'U\x84\x9c\x0e~z\x92@'
p782
tp783
Rp784
sg62
I00
sg63
g24
(S'\x07\xe1\n\x1e\n\x01\n\x03l;'
p785
tp786
Rp787
sg67
g29
(g70
S'\x00\x14\x00\x00\x00\x00\x00\x00'
p788
tp789
Rp790
sba(icoord
CoordRequest
p791
(dp792
g4
g5
sg6
g666
sg8
g667
sg22
Nsg23
g24
(S'\x07\xe1\n\x1e\x0b6\x14\x02\xf1n'
p793
tp794
Rp795
sg28
g29
(g33
S'\xb7\xaf(\xf5\xbdl\x90@'
p796
tp797
Rp798
sg39
g40
sg41
I0
sg42
I00
sg43
I0
sg44
g29
(g33
S';\xdfO\x8d\x97n\x82@'
p799
tp800
Rp801
sg48
Nsg49
I0
sg50
I00
sg51
g52
sg58
g29
(g33
S'\xc8#\xce\xe8\xf7\x85\xba@'
p802
tp803
Rp804
sg62
I00
sg63
g24
(S'\x07\xe1\n\x1e\n\x01\n\x03l\xe2'
p805
tp806
Rp807
sg67
g29
(g70
S'\x00x\x00\x00\x00\x00\x00\x00'
p808
tp809
Rp810
sba(icoord
CoordRequest
p811
(dp812
g4
g5
sg6
g666
sg8
g667
sg22
Nsg23
g24
(S'\x07\xe1\n\x1e\n\x0c5\x06\xc8_'
p813
tp814
Rp815
sg28
g29
(g33
S',\xdfF\x84lNa@'
p816
tp817
Rp818
sg39
g40
sg41
I0
sg42
I00
sg43
I0
sg44
g29
(g33
S';\xdfO\x8d\x97nr@'
p819
tp820
Rp821
sg48
Nsg49
I0
sg50
I00
sg51
g52
sg58
g29
(g33
S'\xb6\xe7\x1cI\xc2\xf9\x85@'
p822
tp823
Rp824
sg62
I00
sg63
g24
(S'\x07\xe1\n\x1e\n\x01\n\x03m\x85'
p825
tp826
Rp827
sg67
g29
(g70
S'\x00<\x00\x00\x00\x00\x00\x00'
p828
tp829
Rp830
sba(icoord
CoordRequest
p831
(dp832
g4
g5
sg6
g666
sg8
g667
sg22
Nsg23
g24
(S'\x07\xe1\n\x1e\n\x04\x10\x08\xf4\xf4'
p833
tp834
Rp835
sg28
g29
(g33
S'\xe0c\xa3\xd7\xb2w\x8a@'
p836
tp837
Rp838
sg39
g40
sg41
I0
sg42
I00
sg43
I0
sg44
g29
(g33
S'\xaeG\xe1z\x14\xae3@'
p839
tp840
Rp841
sg48
Nsg49
I0
sg50
I00
sg51
g52
sg58
g29
(g33
S'#\xedQ\x06\x97Kg@'
p842
tp843
Rp844
sg62
I00
sg63
g24
(S'\x07\xe1\n\x1e\n\x01\n\x03n*'
p845
tp846
Rp847
sg67
g29
(g70
S'\x01\x04\x00\x00\x00\x00\x00\x00'
p848
tp849
Rp850
sbasg56
g57
sbsg22
Nsg23
g24
(S"\x07\xe1\n\x1e\n'8\x04C\x0c"
p851
tp852
Rp853
sg28
g29
(g33
S'\xe4\x90\xb3\x7f_\xb4\xa1@'
p854
tp855
Rp856
sg39
g40
sg41
I0
sg42
I00
sg43
I0
sg44
g29
(g33
S'\xfa~j\xbct\x93X@'
p857
tp858
Rp859
sg48
Nsg49
I0
sg50
I00
sg51
g52
sg58
g29
(g33
S'\xe7\r\xbd\xab\x1c,\xa2@'
p860
tp861
Rp862
sg62
I00
sg63
g24
(S'\x07\xe1\n\x1e\n\x01\n\x03hN'
p863
tp864
Rp865
sg67
g29
(g70
S'\x00\x14\x00\x00\x00\x00\x00\x00'
p866
tp867
Rp868
sba(icoord
CoordRequest
p869
(dp870
g4
g5
sg6
S'denv-201'
p871
sg8
(icoord
DTN
p872
(dp873
g11
Nsg12
g871
sg13
S'192.168.120.201'
p874
sg15
Nsg16
Nsg17
I-1
sg18
(lp875
g869
a(icoord
CoordRequest
p876
(dp877
g4
g5
sg6
g871
sg8
g872
sg22
Nsg23
g24
(S'\x07\xe1\n\x1e\x0b\x18"\x07\xf8\xc3'
p878
tp879
Rp880
sg28
g29
(g33
S'\x03e\x1d\xda\xa2\x1a\xa3@'
p881
tp882
Rp883
sg39
g40
sg41
I0
sg42
I00
sg43
I0
sg44
g29
(g33
S'\xfa~j\xbct\x93h@'
p884
tp885
Rp886
sg48
Nsg49
I0
sg50
I00
sg51
g52
sg58
g29
(g33
S'\x87\x9e\x19\x88L\x8c\xb3@'
p887
tp888
Rp889
sg62
I00
sg63
g24
(S'\x07\xe1\n\x1e\n\x01\n\x03h\xfb'
p890
tp891
Rp892
sg67
g29
(g70
S'\x00(\x00\x00\x00\x00\x00\x00'
p893
tp894
Rp895
sba(icoord
CoordRequest
p896
(dp897
g4
g5
sg6
g871
sg8
g872
sg22
Nsg23
g24
(S'\x07\xe1\n\x1e\n\x1b&\x05\xd9\t'
p898
tp899
Rp900
sg28
g29
(g33
S'\x9b\x9e\xda\xee<\xae\x97@'
p901
tp902
Rp903
sg39
g40
sg41
I0
sg42
I00
sg43
I0
sg44
g29
(g33
S'\xfa~j\xbct\x93X@'
p904
tp905
Rp906
sg48
Nsg49
I0
sg50
I00
sg51
g52
sg58
g29
(g33
S'\x8cwLr\xa3\xd0\x98@'
p907
tp908
Rp909
sg62
I00
sg63
g24
(S'\x07\xe1\n\x1e\n\x01\n\x03i\x89'
p910
tp911
Rp912
sg67
g29
(g70
S'\x00\x14\x00\x00\x00\x00\x00\x00'
p913
tp914
Rp915
sba(icoord
CoordRequest
p916
(dp917
g4
g5
sg6
g871
sg8
g872
sg22
Nsg23
g24
(S'\x07\xe1\n\x1e\n\x01\x1d\x08\x9f`'
p918
tp919
Rp920
sg28
g29
(g33
S'M\x0e\x86\xc7\xfe/X@'
p921
tp922
Rp923
sg39
g40
sg41
I0
sg42
I00
sg43
I0
sg44
g29
(g33
S'a2U0*\xa9#@'
p924
tp925
Rp926
sg48
Nsg49
I0
sg50
I00
sg51
g52
sg58
g29
(g33
S'g\xd5F\xbe_W3@'
p927
tp928
Rp929
sg62
I00
sg63
g24
(S"\x07\xe1\n\x1e\n\x01\n\x03j'"
p930
tp931
Rp932
sg67
g29
(g70
S'\x00\x02\x00\x00\x00\x00\x00\x00'
p933
tp934
Rp935
sba(icoord
CoordRequest
p936
(dp937
g4
g5
sg6
g871
sg8
g872
sg22
Nsg23
g24
(S'\x07\xe1\n\x1e\x0b7\r\n\t\xf5'
p938
tp939
Rp940
sg28
g29
(g33
S' \xc6\x8c,\x00\x91\x90@'
p941
tp942
Rp943
sg39
g40
sg41
I0
sg42
I00
sg43
I0
sg44
g29
(g33
S';\xdfO\x8d\x97n\x82@'
p944
tp945
Rp946
sg48
Nsg49
I0
sg50
I00
sg51
g52
sg58
g29
(g33
S'yv(\x18o\xbb\xba@'
p947
tp948
Rp949
sg62
I00
sg63
g24
(S'\x07\xe1\n\x1e\n\x01\n\x03j\xcb'
p950
tp951
Rp952
sg67
g29
(g70
S'\x00x\x00\x00\x00\x00\x00\x00'
p953
tp954
Rp955
sba(icoord
CoordRequest
p956
(dp957
g4
g5
sg6
g871
sg8
g872
sg22
Nsg23
g24
(S'\x07\xe1\n\x1e\x0b\x04\x04\x03\xefW'
p958
tp959
Rp960
sg28
g29
(g33
S'W\x12nd\xdcn\x92@'
p961
tp962
Rp963
sg39
g40
sg41
I0
sg42
I00
sg43
I0
sg44
g29
(g33
S';\xdfO\x8d\x97nr@'
p964
tp965
Rp966
sg48
Nsg49
I0
sg50
I00
sg51
g52
sg58
g29
(g33
S'&\xb4GJ\x11|\xad@'
p967
tp968
Rp969
sg62
I00
sg63
g24
(S'\x07\xe1\n\x1e\n\x01\n\x03km'
p970
tp971
Rp972
sg67
g29
(g70
S'\x00<\x00\x00\x00\x00\x00\x00'
p973
tp974
Rp975
sba(icoord
CoordRequest
p976
(dp977
g4
g5
sg6
g871
sg8
g872
sg22
Nsg23
g24
(S'\x07\xe1\n\x1e\n,\x0f\x0e\xf3Y'
p978
tp979
Rp980
sg28
g29
(g33
S'\xb8\x01\xb3\x82OF\x88@'
p981
tp982
Rp983
sg39
g40
sg41
I0
sg42
I00
sg43
I0
sg44
g29
(g33
S';\xdfO\x8d\x97nr@'
p984
tp985
Rp986
sg48
Nsg49
I0
sg50
I00
sg51
g52
sg58
g29
(g33
S'T\x93\x05\xcb\x823\xa4@'
p987
tp988
Rp989
sg62
I00
sg63
g24
(S'\x07\xe1\n\x1e\n\x01\n\x03lZ'
p990
tp991
Rp992
sg67
g29
(g70
S'\x00<\x00\x00\x00\x00\x00\x00'
p993
tp994
Rp995
sba(icoord
CoordRequest
p996
(dp997
g4
g5
sg6
g871
sg8
g872
sg22
Nsg23
g24
(S'\x07\xe1\n\x1e\n\x030\x07\xf7\xa0'
p998
tp999
Rp1000
sg28
g29
(g33
S'?\x9a\x97\xfc\xdc\x02\x86@'
p1001
tp1002
Rp1003
sg39
g40
sg41
I0
sg42
I00
sg43
I0
sg44
g29
(g33
S'\xaeG\xe1z\x14\xae3@'
p1004
tp1005
Rp1006
sg48
Nsg49
I0
sg50
I00
sg51
g52
sg58
g29
(g33
S'\x83\xe3\xc1:\x86\xc9c@'
p1007
tp1008
Rp1009
sg62
I00
sg63
g24
(S'\x07\xe1\n\x1e\n\x01\n\x03l\xfd'
p1010
tp1011
Rp1012
sg67
g29
(g70
S'\x01\x04\x00\x00\x00\x00\x00\x00'
p1013
tp1014
Rp1015
sba(icoord
CoordRequest
p1016
(dp1017
g4
g5
sg6
g871
sg8
g872
sg22
Nsg23
g24
(S'\x07\xe1\n\x1e\n\x08\x1d\x0b\x1e\x0f'
p1018
tp1019
Rp1020
sg28
g29
(g33
S'7\x00\xf3\xaa\xc4\xe2^@'
p1021
tp1022
Rp1023
sg39
g40
sg41
I0
sg42
I00
sg43
I0
sg44
g29
(g33
S'\xfa~j\xbct\x93h@'
p1024
tp1025
Rp1026
sg48
Nsg49
I0
sg50
I00
sg51
g52
sg58
g29
(g33
S'\x8d\x8a\x8e\x0e\x10x{@'
p1027
tp1028
Rp1029
sg62
I00
sg63
g24
(S'\x07\xe1\n\x1e\n\x01\n\x03m\x9f'
p1030
tp1031
Rp1032
sg67
g29
(g70
S'\x00(\x00\x00\x00\x00\x00\x00'
p1033
tp1034
Rp1035
sba(icoord
CoordRequest
p1036
(dp1037
g4
g5
sg6
g871
sg8
g872
sg22
Nsg23
g24
(S'\x07\xe1\n\x1e\n\x02\x18\x05\xdc\xc6'
p1038
tp1039
Rp1040
sg28
g29
(g33
S'\x92\xc9a\xae\x1as\x84@'
p1041
tp1042
Rp1043
sg39
g40
sg41
I0
sg42
I00
sg43
I0
sg44
g29
(g33
S'a2U0*\xa9#@'
p1044
tp1045
Rp1046
sg48
Nsg49
I0
sg50
I00
sg51
g52
sg58
g29
(g33
S'}\x105\xf72\x8aR@'
p1047
tp1048
Rp1049
sg62
I00
sg63
g24
(S'\x07\xe1\n\x1e\n\x01\n\x03nE'
p1050
tp1051
Rp1052
sg67
g29
(g70
S'\x00\x02\x00\x00\x00\x00\x00\x00'
p1053
tp1054
Rp1055
sbasg56
g57
sbsg22
Nsg23
g24
(S'\x07\xe1\n\x1e\n\x08\x07\x07\x0e\xdb'
p1056
tp1057
Rp1058
sg28
g29
(g33
S'\x00\x11.YW\xbdD@'
p1059
tp1060
Rp1061
sg39
g40
sg41
I0
sg42
I00
sg43
I0
sg44
g29
(g33
S';\xdfO\x8d\x97nr@'
p1062
tp1063
Rp1064
sg48
Nsg49
I0
sg50
I00
sg51
g52
sg58
g29
(g33
S'\xdb\xcb\xc4\xd9\xd3\x13z@'
p1065
tp1066
Rp1067
sg62
I00
sg63
g24
(S'\x07\xe1\n\x1e\n\x01\n\x03hf'
p1068
tp1069
Rp1070
sg67
g29
(g70
S'\x00<\x00\x00\x00\x00\x00\x00'
p1071
tp1072
Rp1073
sba(icoord
CoordRequest
p1074
(dp1075
g4
g5
sg6
S'atla-200'
p1076
sg8
(icoord
DTN
p1077
(dp1078
g11
Nsg12
g1076
sg13
S'192.168.120.200'
p1079
sg15
Nsg16
Nsg17
I-1
sg18
(lp1080
g1074
a(icoord
CoordRequest
p1081
(dp1082
g4
g5
sg6
g1076
sg8
g1077
sg22
Nsg23
g24
(S'\x07\xe1\n\x1e\n.\x12\t\xb0\xfb'
p1083
tp1084
Rp1085
sg28
g29
(g33
S'\x0f?\x8bg\t\x93\x89@'
p1086
tp1087
Rp1088
sg39
g40
sg41
I0
sg42
I00
sg43
I0
sg44
g29
(g33
S';\xdfO\x8d\x97nr@'
p1089
tp1090
Rp1091
sg48
Nsg49
I0
sg50
I00
sg51
g52
sg58
g29
(g33
S'\xe9\xfd,\xc0\xd2(\xa5@'
p1092
tp1093
Rp1094
sg62
I00
sg63
g24
(S'\x07\xe1\n\x1e\n\x01\n\x03i\x15'
p1095
tp1096
Rp1097
sg67
g29
(g70
S'\x00<\x00\x00\x00\x00\x00\x00'
p1098
tp1099
Rp1100
sba(icoord
CoordRequest
p1101
(dp1102
g4
g5
sg6
g1076
sg8
g1077
sg22
Nsg23
g24
(S'\x07\xe1\n\x1e\n\x011\x05\x17='
p1103
tp1104
Rp1105
sg28
g29
(g33
S'\xce\x1cxw\x8e\x9dr@'
p1106
tp1107
Rp1108
sg39
g40
sg41
I0
sg42
I00
sg43
I0
sg44
g29
(g33
S'a2U0*\xa9#@'
p1109
tp1110
Rp1111
sg48
Nsg49
I0
sg50
I00
sg51
g52
sg58
g29
(g33
S'\xc7 f\xcc\x13\x8eC@'
p1112
tp1113
Rp1114
sg62
I00
sg63
g24
(S'\x07\xe1\n\x1e\n\x01\n\x03i\xa2'
p1115
tp1116
Rp1117
sg67
g29
(g70
S'\x00\x02\x00\x00\x00\x00\x00\x00'
p1118
tp1119
Rp1120
sba(icoord
CoordRequest
p1121
(dp1122
g4
g5
sg6
g1076
sg8
g1077
sg22
Nsg23
g24
(S'\x07\xe1\n\x1e\n\x02(\x04@z'
p1123
tp1124
Rp1125
sg28
g29
(g33
S'b\xa5\x14{\xae\x80\x89@'
p1126
tp1127
Rp1128
sg39
g40
sg41
I0
sg42
I00
sg43
I0
sg44
g29
(g33
S'a2U0*\xa9#@'
p1129
tp1130
Rp1131
sg48
Nsg49
I0
sg50
I00
sg51
g52
sg58
g29
(g33
S'];\xc3{\x82\x83V@'
p1132
tp1133
Rp1134
sg62
I00
sg63
g24
(S'\x07\xe1\n\x1e\n\x01\n\x03jC'
p1135
tp1136
Rp1137
sg67
g29
(g70
S'\x00\x02\x00\x00\x00\x00\x00\x00'
p1138
tp1139
Rp1140
sba(icoord
CoordRequest
p1141
(dp1142
g4
g5
sg6
g1076
sg8
g1077
sg22
Nsg23
g24
(S'\x07\xe1\n\x1e\x0b%-\x03\xc4\xba'
p1143
tp1144
Rp1145
sg28
g29
(g33
S'\xec\xca \xc3\x00\x94\x8b@'
p1146
tp1147
Rp1148
sg39
g40
sg41
I0
sg42
I00
sg43
I0
sg44
g29
(g33
S';\xdfO\x8d\x97n\x82@'
p1149
tp1150
Rp1151
sg48
Nsg49
I0
sg50
I00
sg51
g52
sg58
g29
(g33
S'\xabI\x03\xe3\x05\xa3\xb6@'
p1152
tp1153
Rp1154
sg62
I00
sg63
g24
(S'\x07\xe1\n\x1e\n\x01\n\x03j\xe7'
p1155
tp1156
Rp1157
sg67
g29
(g70
S'\x00x\x00\x00\x00\x00\x00\x00'
p1158
tp1159
Rp1160
sba(icoord
CoordRequest
p1161
(dp1162
g4
g5
sg6
g1076
sg8
g1077
sg22
Nsg23
g24
(S'\x07\xe1\n\x1e\n\x13\n\x0e\xb9\x88'
p1163
tp1164
Rp1165
sg28
g29
(g33
S'~\x02\x08w\x17\x1b|@'
p1166
tp1167
Rp1168
sg39
g40
sg41
I0
sg42
I00
sg43
I0
sg44
g29
(g33
S'\xfa~j\xbct\x93h@'
p1169
tp1170
Rp1171
sg48
Nsg49
I0
sg50
I00
sg51
g52
sg58
g29
(g33
S'\x9b\xa2\xd6\xa4\xf6\xe2\x90@'
p1172
tp1173
Rp1174
sg62
I00
sg63
g24
(S'\x07\xe1\n\x1e\n\x01\n\x03k\x89'
p1175
tp1176
Rp1177
sg67
g29
(g70
S'\x00(\x00\x00\x00\x00\x00\x00'
p1178
tp1179
Rp1180
sba(icoord
CoordRequest
p1181
(dp1182
g4
g5
sg6
g1076
sg8
g1077
sg22
Nsg23
g24
(S'\x07\xe1\n\x1e\n\x02 \x08-\xbd'
p1183
tp1184
Rp1185
sg28
g29
(g33
S'\xb7\x8e+\x85\x89\n\x87@'
p1186
tp1187
Rp1188
sg39
g40
sg41
I0
sg42
I00
sg43
I0
sg44
g29
(g33
S'a2U0*\xa9#@'
p1189
tp1190
Rp1191
sg48
Nsg49
I0
sg50
I00
sg51
g52
sg58
g29
(g33
S'\xd5\x0c\xdb\xa9\xf1\x93T@'
p1192
tp1193
Rp1194
sg62
I00
sg63
g24
(S'\x07\xe1\n\x1e\n\x01\n\x03lt'
p1195
tp1196
Rp1197
sg67
g29
(g70
S'\x00\x02\x00\x00\x00\x00\x00\x00'
p1198
tp1199
Rp1200
sba(icoord
CoordRequest
p1201
(dp1202
g4
g5
sg6
g1076
sg8
g1077
sg22
Nsg23
g24
(S'\x07\xe1\n\x1e\n\x11)\x01\xbc\xd0'
p1203
tp1204
Rp1205
sg28
g29
(g33
S'P2(\xc9\xe0_\x8c@'
p1206
tp1207
Rp1208
sg39
g40
sg41
I0
sg42
I00
sg43
I0
sg44
g29
(g33
S'\xfa~j\xbct\x93X@'
p1209
tp1210
Rp1211
sg48
Nsg49
I0
sg50
I00
sg51
g52
sg58
g29
(g33
S'\xceM\xce\\\x1d\xf7\x8e@'
p1212
tp1213
Rp1214
sg62
I00
sg63
g24
(S'\x07\xe1\n\x1e\n\x01\n\x03m\x17'
p1215
tp1216
Rp1217
sg67
g29
(g70
S'\x00\x14\x00\x00\x00\x00\x00\x00'
p1218
tp1219
Rp1220
sba(icoord
CoordRequest
p1221
(dp1222
g4
g5
sg6
g1076
sg8
g1077
sg22
Nsg23
g24
(S'\x07\xe1\n\x1e\n\x0b\x1b\r\xf2\xc2'
p1223
tp1224
Rp1225
sg28
g29
(g33
S'IP\xf7\xd9T\xbd\xa7@'
p1226
tp1227
Rp1228
sg39
g40
sg41
I0
sg42
I00
sg43
I0
sg44
g29
(g33
S'\xaeG\xe1z\x14\xae3@'
p1229
tp1230
Rp1231
sg48
Nsg49
I0
sg50
I00
sg51
g52
sg58
g29
(g33
S'\xe5\xdc\xe3\xeb\x83M\x83@'
p1232
tp1233
Rp1234
sg62
I00
sg63
g24
(S'\x07\xe1\n\x1e\n\x01\n\x03m\xbb'
p1235
tp1236
Rp1237
sg67
g29
(g70
S'\x01\x04\x00\x00\x00\x00\x00\x00'
p1238
tp1239
Rp1240
sba(icoord
CoordRequest
p1241
(dp1242
g4
g5
sg6
g1076
sg8
g1077
sg22
Nsg23
g24
(S'\x07\xe1\n\x1e\n\x026\n\x13Q'
p1243
tp1244
Rp1245
sg28
g29
(g33
S'RYL\xa8\xaf\xeaz@'
p1246
tp1247
Rp1248
sg39
g40
sg41
I0
sg42
I00
sg43
I0
sg44
g29
(g33
S'\xaeG\xe1z\x14\xae3@'
p1249
tp1250
Rp1251
sg48
Nsg49
I0
sg50
I00
sg51
g52
sg58
g29
(g33
S'\x1c5\xda>\xde\x1bZ@'
p1252
tp1253
Rp1254
sg62
I00
sg63
g24
(S'\x07\xe1\n\x1e\n\x01\n\x03na'
p1255
tp1256
Rp1257
sg67
g29
(g70
S'\x01\x04\x00\x00\x00\x00\x00\x00'
p1258
tp1259
Rp1260
sbasg56
g57
sbsg22
Nsg23
g24
(S'\x07\xe1\n\x1e\n\x01\x19\x03\xc8\xe6'
p1261
tp1262
Rp1263
sg28
g29
(g33
S'\xcc\xaaZ~akJ@'
p1264
tp1265
Rp1266
sg39
g40
sg41
I0
sg42
I00
sg43
I0
sg44
g29
(g33
S'a2U0*\xa9#@'
p1267
tp1268
Rp1269
sg48
Nsg49
I0
sg50
I00
sg51
g52
sg58
g29
(g33
S'\xe0HKe\xa2\x0c.@'
p1270
tp1271
Rp1272
sg62
I00
sg63
g24
(S'\x07\xe1\n\x1e\n\x01\n\x03h\x82'
p1273
tp1274
Rp1275
sg67
g29
(g70
S'\x00\x02\x00\x00\x00\x00\x00\x00'
p1276
tp1277
Rp1278
sbaa(lp1279
g20
ag261
ag466
ag671
ag876
ag1081
aa(lp1280
g76
ag281
ag486
ag691
ag896
ag1101
aa(lp1281
g96
ag301
ag506
ag711
ag916
ag1121
aa(lp1282
g116
ag321
ag526
ag731
ag936
ag1141
aa(lp1283
g136
ag341
ag546
ag751
ag956
ag1161
aa(lp1284
g156
ag361
ag566
ag771
ag976
ag1181
aa(lp1285
g176
ag381
ag586
ag791
ag996
ag1201
aa(lp1286
g196
ag401
ag606
ag811
ag1016
ag1221
aa(lp1287
g216
ag421
ag626
ag831
ag1036
ag1241
aa.